Component: ARM Compiler 5.06 update 4 (build 422) Tool: armlink [4d35d2]

==============================================================================

Section Cross References

    led.o(.text) refers to stm32f2xx_rcc.o(.text) for RCC_AHB1PeriphClockCmd
    led.o(.text) refers to stm32f2xx_gpio.o(.text) for GPIO_Init
    led.o(.text) refers to gps_process.o(.text) for GPS_GetValid
    led.o(.text) refers to debug.o(.text) for DebugPrint
    led.o(.text) refers to dataflash.o(.text) for FLASH_GetTrangThai
    led.o(.text) refers to led.o(.data) for Led
    led.o(.text) refers to main.o(.bss) for xSystem
    led.o(.text) refers to bgt_rfid.o(.bss) for RFID
    main.o(.text) refers to gsm_message.o(.text) for Message_Tick100ms
    main.o(.text) refers to gps_process.o(.text) for GPS_Manage
    main.o(.text) refers to measurement.o(.text) for Measure_Tick1000ms
    main.o(.text) refers to hardwaremanager.o(.text) for Hardware_XoaCoLoi
    main.o(.text) refers to bgt_rfid.o(.text) for RFID_Tick1s
    main.o(.text) refers to olddataprocess.o(.text) for OldData_Tick1s
    main.o(.text) refers to hp2010.o(.text) for HP2010_Tick1s
    main.o(.text) refers to tatdongco.o(.text) for KhoaXe_Tick1s
    main.o(.text) refers to nhienlieu.o(.text) for NhienLieu_Tick1s
    main.o(.text) refers to gsm_gprs.o(.text) for GSM_Tick100ms
    main.o(.text) refers to bgt_process.o(.text) for BGT_Tick100ms
    main.o(.text) refers to bgt_alarm.o(.text) for Alarm_Tick100ms
    main.o(.text) refers to initsystem.o(.text) for System_Initialize
    main.o(.text) refers to watchdog.o(.text) for Watchdog_Reset
    main.o(.text) refers to gsm_hardware.o(.text) for GSM_XuLyDuLieu
    main.o(.text) refers to configuration.o(.text) for Config_Process
    main.o(.text) refers to utilities.o(.text) for mem_set
    main.o(.text) refers to main.o(.bss) for xSystem
    main.o(.text) refers to bgt_rfid.o(.bss) for RFID
    buzz.o(.text) refers to stm32f2xx_rcc.o(.text) for RCC_AHB1PeriphClockCmd
    buzz.o(.text) refers to stm32f2xx_gpio.o(.text) for GPIO_Init
    buzz.o(.text) refers to buzz.o(.data) for Buzz
    debug.o(.text) refers to stm32f2xx_usart.o(.text) for USART_DeInit
    debug.o(.text) refers to stm32f2xx_rcc.o(.text) for RCC_APB2PeriphClockCmd
    debug.o(.text) refers to stm32f2xx_gpio.o(.text) for GPIO_PinAFConfig
    debug.o(.text) refers to misc.o(.text) for NVIC_PriorityGroupConfig
    debug.o(.text) refers to main.o(.bss) for xSystem
    utilities.o(.text) refers to watchdog.o(.text) for Watchdog_Reset
    utilities.o(.text) refers to main.o(.text) for XuLyHamQuanTrong
    utilities.o(.text) refers to strlen.o(.text) for strlen
    utilities.o(.text) refers to main.o(.bss) for xSystem
    interrupt.o(.text) refers to amthanh.o(.text) for AmThanh_Tick1ms
    interrupt.o(.text) refers to stm32f2xx_exti.o(.text) for EXTI_GetITStatus
    interrupt.o(.text) refers to measurement.o(.text) for Measure_TinhKm
    interrupt.o(.text) refers to stm32f2xx_tim.o(.text) for TIM_GetITStatus
    interrupt.o(.text) refers to buzz.o(.text) for Buzz_Tick
    interrupt.o(.text) refers to watchdog.o(.text) for Watchdog_Tick
    interrupt.o(.text) refers to led.o(.text) for Led_Tick10ms
    interrupt.o(.text) refers to nhienlieu.o(.text) for NhienLieu_Tick10ms
    interrupt.o(.text) refers to bgt_process.o(.text) for BGT_Tick200ms
    interrupt.o(.text) refers to rtc.o(.text) for RTC_ProcessSystem
    interrupt.o(.text) refers to stm32f2xx_usart.o(.text) for USART_GetITStatus
    interrupt.o(.text) refers to configuration.o(.text) for Config_ReceiveData
    interrupt.o(.text) refers to gps_hardware.o(.text) for GPS_ReceiveData
    interrupt.o(.text) refers to gsm_hardware.o(.text) for GSM_ReceiveData
    interrupt.o(.text) refers to hp2010.o(.text) for HP2010_NhanDuLieu
    interrupt.o(.text) refers to bgt_rfid.o(.text) for RFID_ReceiveData
    interrupt.o(.text) refers to main.o(.bss) for xSystem
    interrupt.o(.text) refers to gsm_hardware.o(.bss) for GSM
    interrupt.o(.text) refers to interrupt.o(.data) for tmpCount
    interrupt.o(.text) refers to configuration.o(.bss) for Config
    interrupt.o(.text) refers to bgt_rfid.o(.bss) for RFID
    interrupt.o(.text) refers to hp2010.o(.bss) for HP2010
    interrupt.o(.text) refers to gsm_message.o(.bss) for Message
    interrupt.o(.text) refers to measurement.o(.bss) for Measure
    interrupt.o(.text) refers to measurement.o(.data) for NumberOfPulse
    interrupt.o(.text) refers to gps_hardware.o(.bss) for GPS
    cauhinh.o(.text) refers to _printf_percent.o(.ARM.Collect$$_printf_percent$$00000000) for _printf_percent
    cauhinh.o(.text) refers to _printf_s.o(.ARM.Collect$$_printf_percent$$00000014) for _printf_s
    cauhinh.o(.text) refers to _printf_str.o(.text) for _printf_str
    cauhinh.o(.text) refers to _printf_u.o(.ARM.Collect$$_printf_percent$$0000000A) for _printf_u
    cauhinh.o(.text) refers to _printf_dec.o(.text) for _printf_int_dec
    cauhinh.o(.text) refers to utilities.o(.text) for mem_set
    cauhinh.o(.text) refers to __2sprintf.o(.text) for __2sprintf
    cauhinh.o(.text) refers to debug.o(.text) for DebugPrint
    cauhinh.o(.text) refers to fram.o(.text) for FRAM_ReadBytes
    cauhinh.o(.text) refers to rtc.o(.text) for RTC_KiemTraThoiGian
    cauhinh.o(.text) refers to cauhinh.o(.bss) for xCauHinh
    cauhinh.o(.text) refers to strtok.o(.text) for strtok
    cauhinh.o(.text) refers to strlen.o(.text) for strlen
    cauhinh.o(.text) refers to bgt_laixe.o(.text) for LaiXe_XuLyDangNhap
    cauhinh.o(.text) refers to strcat.o(.text) for strcat
    cauhinh.o(.text) refers to gsm_message.o(.text) for Message_Tick100ms
    cauhinh.o(.text) refers to main.o(.bss) for xSystem
    cauhinh.o(.text) refers to strstr.o(.text) for strstr
    initsystem.o(.text) refers to misc.o(.text) for NVIC_Init
    initsystem.o(.text) refers to stm32f2xx_rcc.o(.text) for RCC_APB1PeriphClockCmd
    initsystem.o(.text) refers to stm32f2xx_tim.o(.text) for TIM_Cmd
    initsystem.o(.text) refers to strstr.o(.text) for strstr
    initsystem.o(.text) refers to utilities.o(.text) for Str2int
    initsystem.o(.text) refers to debug.o(.text) for DebugPrint
    initsystem.o(.text) refers to buzz.o(.text) for Beeps
    initsystem.o(.text) refers to system_stm32f2xx.o(.text) for SystemInit
    initsystem.o(.text) refers to watchdog.o(.text) for Watchdog_Initialize
    initsystem.o(.text) refers to amthanh.o(.text) for AmThanh_Initialize
    initsystem.o(.text) refers to bgt_rfid.o(.text) for RFID_Initialize
    initsystem.o(.text) refers to gps_hardware.o(.text) for GPS_Initialize
    initsystem.o(.text) refers to gsm_hardware.o(.text) for GSM_Initialize
    initsystem.o(.text) refers to fram.o(.text) for FRAM_Initialize
    initsystem.o(.text) refers to dataflash.o(.text) for FLASH_Initialize
    initsystem.o(.text) refers to hardwaremanager.o(.text) for Hardware_CheckClockSource
    initsystem.o(.text) refers to cauhinh.o(.text) for CauHinh_Initialize
    initsystem.o(.text) refers to led.o(.text) for Led_Initialize
    initsystem.o(.text) refers to rtc.o(.text) for RTC_Initialize
    initsystem.o(.text) refers to hp2010.o(.text) for HP2010_Initialize
    initsystem.o(.text) refers to tatdongco.o(.text) for KhoaXe_Initialize
    initsystem.o(.text) refers to measurement.o(.text) for Measurement_Initialize
    initsystem.o(.text) refers to gsm_m95.o(.text) for M95_PowerOn
    initsystem.o(.text) refers to gsm_message.o(.text) for Message_Initialize
    initsystem.o(.text) refers to bgt_process.o(.text) for BGT_Initialize
    initsystem.o(.text) refers to mahoa.o(.text) for MaHoa_Initialize
    initsystem.o(.text) refers to olddataprocess.o(.text) for OldData_Initialize
    initsystem.o(.text) refers to initsystem.o(.bss) for GPSVersion
    initsystem.o(.text) refers to system_stm32f2xx.o(.data) for SystemCoreClock
    initsystem.o(.text) refers to main.o(.bss) for xSystem
    watchdog.o(.text) refers to stm32f2xx_rcc.o(.text) for RCC_AHB1PeriphClockCmd
    watchdog.o(.text) refers to stm32f2xx_gpio.o(.text) for GPIO_Init
    watchdog.o(.text) refers to stm32f2xx_iwdg.o(.text) for IWDG_WriteAccessCmd
    tatdongco.o(.text) refers to _printf_percent.o(.ARM.Collect$$_printf_percent$$00000000) for _printf_percent
    tatdongco.o(.text) refers to _printf_s.o(.ARM.Collect$$_printf_percent$$00000014) for _printf_s
    tatdongco.o(.text) refers to _printf_str.o(.text) for _printf_str
    tatdongco.o(.text) refers to _printf_d.o(.ARM.Collect$$_printf_percent$$00000009) for _printf_d
    tatdongco.o(.text) refers to _printf_dec.o(.text) for _printf_int_dec
    tatdongco.o(.text) refers to stm32f2xx_rcc.o(.text) for RCC_APB2PeriphClockCmd
    tatdongco.o(.text) refers to stm32f2xx_gpio.o(.text) for GPIO_Init
    tatdongco.o(.text) refers to utilities.o(.text) for mem_set
    tatdongco.o(.text) refers to strstr.o(.text) for strstr
    tatdongco.o(.text) refers to __2sprintf.o(.text) for __2sprintf
    tatdongco.o(.text) refers to gsm_sms.o(.text) for SMS_GuiTinNhan
    tatdongco.o(.text) refers to measurement.o(.text) for GetTrangThaiDiChuyen
    tatdongco.o(.text) refers to debug.o(.text) for DebugPrint
    tatdongco.o(.text) refers to tatdongco.o(.bss) for KhoaXe
    tatdongco.o(.text) refers to cauhinh.o(.bss) for xCauHinh
    tatdongco.o(.text) refers to main.o(.bss) for xSystem
    measurement.o(.text) refers to stm32f2xx_rcc.o(.text) for RCC_AHB1PeriphClockCmd
    measurement.o(.text) refers to stm32f2xx_dma.o(.text) for DMA_DeInit
    measurement.o(.text) refers to nhienlieu.o(.text) for NhienLieu_Initialize
    measurement.o(.text) refers to stm32f2xx_adc.o(.text) for ADC_CommonInit
    measurement.o(.text) refers to fflt_clz.o(x$fpl$ffltu) for __aeabi_ui2f
    measurement.o(.text) refers to fdiv.o(x$fpl$fdiv) for __aeabi_fdiv
    measurement.o(.text) refers to fmul.o(x$fpl$fmul) for __aeabi_fmul
    measurement.o(.text) refers to ffixu.o(x$fpl$ffixu) for __aeabi_f2uiz
    measurement.o(.text) refers to stm32f2xx_gpio.o(.text) for GPIO_ReadInputDataBit
    measurement.o(.text) refers to debug.o(.text) for DebugPrint
    measurement.o(.text) refers to stm32f2xx_syscfg.o(.text) for SYSCFG_EXTILineConfig
    measurement.o(.text) refers to stm32f2xx_exti.o(.text) for EXTI_ClearITPendingBit
    measurement.o(.text) refers to misc.o(.text) for NVIC_PriorityGroupConfig
    measurement.o(.text) refers to measurement.o(.bss) for ADC_RegularConvertedValueTab
    measurement.o(.text) refers to measurement.o(.data) for XungOld
    measurement.o(.text) refers to cauhinh.o(.bss) for xCauHinh
    measurement.o(.text) refers to main.o(.bss) for xSystem
    measurement.o(.text) refers to dataflash.o(.text) for FLASH_GetTrangThai
    measurement.o(.text) refers to fram.o(.text) for FRAM_GetTrangThai
    measurement.o(.text) refers to bgt_rfid.o(.text) for RFID_GetTrangThai
    measurement.o(.text) refers to hp2010.o(.text) for HP2010_LayTrangThaiCoKhach
    measurement.o(.text) refers to gps_process.o(.text) for GPS_GetValid
    measurement.o(.text) refers to gsm_message.o(.text) for Message_GuiTinNhanh
    measurement.o(.text) refers to bgt_data.o(.text) for BGT_GhiBanTinSOS
    configuration.o(.text) refers to _printf_percent.o(.ARM.Collect$$_printf_percent$$00000000) for _printf_percent
    configuration.o(.text) refers to _printf_s.o(.ARM.Collect$$_printf_percent$$00000014) for _printf_s
    configuration.o(.text) refers to _printf_str.o(.text) for _printf_str
    configuration.o(.text) refers to utilities.o(.text) for mem_set
    configuration.o(.text) refers to strlen.o(.text) for strlen
    configuration.o(.text) refers to __2sprintf.o(.text) for __2sprintf
    configuration.o(.text) refers to gsm_sms.o(.text) for SMS_GuiTinNhan
    configuration.o(.text) refers to strstr.o(.text) for strstr
    configuration.o(.text) refers to buzz.o(.text) for Beeps
    configuration.o(.text) refers to gps_process.o(.text) for GPS_SetDebugMode
    configuration.o(.text) refers to debug.o(.text) for DebugPrint
    configuration.o(.text) refers to dataflash.o(.text) for FLASH_XoaToanBoChip
    configuration.o(.text) refers to hardwaremanager.o(.text) for Hardware_SystemReset
    configuration.o(.text) refers to fram.o(.text) for FRAM_XoaChip
    configuration.o(.text) refers to gsm_hardware.o(.text) for GSM_DebugMode
    configuration.o(.text) refers to updatefimware.o(.text) for Luuthongtinupdatefimware
    configuration.o(.text) refers to gsm_message.o(.text) for Message_PacketKQ
    configuration.o(.text) refers to cauhinh.o(.text) for CauHinh_XuLyCaiDatAll
    configuration.o(.text) refers to watchdog.o(.text) for Watchdog_Reset
    configuration.o(.text) refers to bgt_laixe.o(.text) for LaiXe_DoiLaiTuTinNhan
    configuration.o(.text) refers to hp2010.o(.text) for HP2010_GuiDiaChiXuongDongHo
    configuration.o(.text) refers to stm32f2xx_gpio.o(.text) for GPIO_SetBits
    configuration.o(.text) refers to bgt_rfid.o(.text) for RFID_Process
    configuration.o(.text) refers to bgt_command.o(.text) for BGT_ProcessCommand
    configuration.o(.text) refers to configuration.o(.bss) for Config
    configuration.o(.text) refers to cauhinh.o(.bss) for xCauHinh
    configuration.o(.text) refers to main.o(.bss) for xSystem
    olddataprocess.o(.text) refers to _printf_percent.o(.ARM.Collect$$_printf_percent$$00000000) for _printf_percent
    olddataprocess.o(.text) refers to _printf_u.o(.ARM.Collect$$_printf_percent$$0000000A) for _printf_u
    olddataprocess.o(.text) refers to _printf_dec.o(.text) for _printf_int_dec
    olddataprocess.o(.text) refers to watchdog.o(.text) for Watchdog_Reset
    olddataprocess.o(.text) refers to bgt_data.o(.text) for BGT_GetFlashAddress
    olddataprocess.o(.text) refers to rtc.o(.text) for rtc_gettime
    olddataprocess.o(.text) refers to debug.o(.text) for DebugPrint
    olddataprocess.o(.text) refers to dataflash.o(.text) for FLASH_ReadBytes
    olddataprocess.o(.text) refers to gsm_message.o(.text) for Message_GuiDuLieuCu
    olddataprocess.o(.text) refers to utilities.o(.text) for mem_set
    olddataprocess.o(.text) refers to __2sprintf.o(.text) for __2sprintf
    olddataprocess.o(.text) refers to main.o(.bss) for xSystem
    olddataprocess.o(.text) refers to olddataprocess.o(.bss) for OldData
    olddataprocess.o(.text) refers to olddataprocess.o(.data) for u8_OldYear
    olddataprocess.o(.text) refers to gsm_message.o(.bss) for Message
    hardwaremanager.o(.text) refers to fram.o(.text) for FRAM_ReadInt
    hardwaremanager.o(.text) refers to stm32f2xx_rcc.o(.text) for RCC_GetFlagStatus
    hardwaremanager.o(.text) refers to debug.o(.text) for DebugPrint
    hardwaremanager.o(.text) refers to watchdog.o(.text) for Watchdog_Reset
    hardwaremanager.o(.text) refers to buzz.o(.text) for Beep
    hardwaremanager.o(.text) refers to stm32f2xx_usart.o(.text) for USART_GetITStatus
    hardwaremanager.o(.text) refers to utilities.o(.text) for Delay
    hardwaremanager.o(.text) refers to main.o(.bss) for xSystem
    flash_if.o(.text) refers to stm32f2xx_flash.o(.text) for FLASH_Unlock
    updatefimware.o(.text) refers to _printf_percent.o(.ARM.Collect$$_printf_percent$$00000000) for _printf_percent
    updatefimware.o(.text) refers to _printf_u.o(.ARM.Collect$$_printf_percent$$0000000A) for _printf_u
    updatefimware.o(.text) refers to _printf_dec.o(.text) for _printf_int_dec
    updatefimware.o(.text) refers to utilities.o(.text) for mem_set
    updatefimware.o(.text) refers to debug.o(.text) for DebugPrint
    updatefimware.o(.text) refers to strlen.o(.text) for strlen
    updatefimware.o(.text) refers to __2sprintf.o(.text) for __2sprintf
    updatefimware.o(.text) refers to watchdog.o(.text) for Watchdog_Reset
    updatefimware.o(.text) refers to flash_if.o(.text) for FLASH_If_Init
    updatefimware.o(.text) refers to stm32f2xx_flash.o(.text) for FLASH_ProgramByte
    updatefimware.o(.text) refers to updatefimware.o(.data) for FLASHStatus
    bgt_data.o(.text) refers to watchdog.o(.text) for Watchdog_Reset
    bgt_data.o(.text) refers to dataflash.o(.text) for FLASH_ReadBytes
    bgt_data.o(.text) refers to utilities.o(.text) for mem_set
    bgt_data.o(.text) refers to gps_process.o(.text) for GPS_GetLatitude
    bgt_data.o(.text) refers to measurement.o(.text) for GetVanTocCo
    bgt_data.o(.text) refers to bgt_data.o(.bss) for BGT
    bgt_data.o(.text) refers to main.o(.bss) for xSystem
    bgt_data.o(.text) refers to bgt_data.o(.data) for LastWriteTime
    bgt_data.o(.text) refers to cauhinh.o(.bss) for xCauHinh
    bgt_data.o(.text) refers to bgt_laixe.o(.bss) for xThongTinLaiXe
    bgt_data.o(.text) refers to fram.o(.text) for FRAM_WriteBytes
    bgt_data.o(.text) refers to bgt_laixe.o(.text) for LaiXe_ThucHienChuyenNgay
    bgt_data.o(.text) refers to nhienlieu.o(.bss) for NhienLieu
    bgt_data.o(.text) refers to gsm_message.o(.bss) for Message
    bgt_data.o(.text) refers to hp2010.o(.bss) for HP2010
    bgt_rfid.o(.text) refers to _printf_percent.o(.ARM.Collect$$_printf_percent$$00000000) for _printf_percent
    bgt_rfid.o(.text) refers to _printf_d.o(.ARM.Collect$$_printf_percent$$00000009) for _printf_d
    bgt_rfid.o(.text) refers to _printf_dec.o(.text) for _printf_int_dec
    bgt_rfid.o(.text) refers to utilities.o(.text) for mem_set
    bgt_rfid.o(.text) refers to stm32f2xx_rcc.o(.text) for RCC_AHB1PeriphClockCmd
    bgt_rfid.o(.text) refers to stm32f2xx_gpio.o(.text) for GPIO_Init
    bgt_rfid.o(.text) refers to stm32f2xx_usart.o(.text) for USART_DeInit
    bgt_rfid.o(.text) refers to misc.o(.text) for NVIC_PriorityGroupConfig
    bgt_rfid.o(.text) refers to strlen.o(.text) for strlen
    bgt_rfid.o(.text) refers to dataflash.o(.text) for FLASH_GetTrangThai
    bgt_rfid.o(.text) refers to __2sprintf.o(.text) for __2sprintf
    bgt_rfid.o(.text) refers to watchdog.o(.text) for Watchdog_Reset
    bgt_rfid.o(.text) refers to strstr.o(.text) for strstr
    bgt_rfid.o(.text) refers to debug.o(.text) for DebugPrint
    bgt_rfid.o(.text) refers to led.o(.text) for Led_HienThiDangNhap
    bgt_rfid.o(.text) refers to buzz.o(.text) for Beeps
    bgt_rfid.o(.text) refers to bgt_rfid.o(.bss) for RFID
    bgt_rfid.o(.text) refers to main.o(.bss) for xSystem
    bgt_rfid.o(.text) refers to measurement.o(.text) for GetTrangThaiDiChuyen
    bgt_rfid.o(.text) refers to bgt_laixe.o(.text) for LaiXe_KiemTraThongTinLaiXe
    bgt_laixe.o(.text) refers to _printf_percent.o(.ARM.Collect$$_printf_percent$$00000000) for _printf_percent
    bgt_laixe.o(.text) refers to _printf_s.o(.ARM.Collect$$_printf_percent$$00000014) for _printf_s
    bgt_laixe.o(.text) refers to _printf_str.o(.text) for _printf_str
    bgt_laixe.o(.text) refers to utilities.o(.text) for GetChecksum
    bgt_laixe.o(.text) refers to fram.o(.text) for FRAM_ReadBytes
    bgt_laixe.o(.text) refers to strlen.o(.text) for strlen
    bgt_laixe.o(.text) refers to debug.o(.text) for DebugPrint
    bgt_laixe.o(.text) refers to measurement.o(.text) for GetTrangThaiDiChuyen
    bgt_laixe.o(.text) refers to strstr.o(.text) for strstr
    bgt_laixe.o(.text) refers to gps_process.o(.text) for GPS_GetLatitude
    bgt_laixe.o(.text) refers to bgt_rfid.o(.text) for RFID_GuiTrangThaiDangNhap
    bgt_laixe.o(.text) refers to buzz.o(.text) for Beeps
    bgt_laixe.o(.text) refers to led.o(.text) for Led_HienThiDangNhap
    bgt_laixe.o(.text) refers to rt_memcpy_w.o(.text) for __aeabi_memcpy4
    bgt_laixe.o(.text) refers to gsm_message.o(.text) for Message_GuiThongTinLaiXe
    bgt_laixe.o(.text) refers to bgt_data.o(.text) for BGT_GhiThongTinLamViecCuaLaiXe
    bgt_laixe.o(.text) refers to bgt_laixe.o(.bss) for xThongTinLaiXe
    bgt_laixe.o(.text) refers to bgt_laixe.o(.data) for Ticks
    bgt_laixe.o(.text) refers to main.o(.bss) for xSystem
    bgt_laixe.o(.text) refers to bgt_rfid.o(.bss) for RFID
    bgt_laixe.o(.text) refers to __2sprintf.o(.text) for __2sprintf
    bgt_alarm.o(.text) refers to measurement.o(.text) for GetCurrentSpeed
    bgt_alarm.o(.text) refers to debug.o(.text) for DebugPrint
    bgt_alarm.o(.text) refers to gps_process.o(.text) for GPS_GetSpeed
    bgt_alarm.o(.text) refers to gsm_message.o(.text) for Message_GuiThongTinQuaTocDo
    bgt_alarm.o(.text) refers to buzz.o(.text) for Beeps
    bgt_alarm.o(.text) refers to cauhinh.o(.bss) for xCauHinh
    bgt_alarm.o(.text) refers to bgt_alarm.o(.data) for Alarm
    bgt_alarm.o(.text) refers to bgt_laixe.o(.bss) for xThongTinLaiXe
    bgt_alarm.o(.text) refers to main.o(.bss) for xSystem
    bgt_alarm.o(.text) refers to bgt_data.o(.bss) for DiChuyen
    bgt_process.o(.text) refers to bgt_laixe.o(.text) for LaiXe_Initialize
    bgt_process.o(.text) refers to bgt_data.o(.text) for BGT_GhiVanTocTungGiay
    bgt_process.o(.text) refers to gsm_message.o(.text) for Message_GuiVanTocTungGiay
    bgt_process.o(.text) refers to utilities.o(.text) for mem_set
    bgt_process.o(.text) refers to rtc.o(.text) for rtc_gettime
    bgt_process.o(.text) refers to measurement.o(.text) for GetTrangThaiDiChuyen
    bgt_process.o(.text) refers to strlen.o(.text) for strlen
    bgt_process.o(.text) refers to debug.o(.text) for DebugPut
    bgt_process.o(.text) refers to bgt_process.o(.bss) for BufferSpeed
    bgt_process.o(.text) refers to main.o(.bss) for xSystem
    bgt_process.o(.text) refers to bgt_process.o(.data) for OldMinute
    bgt_command.o(.text) refers to _printf_percent.o(.ARM.Collect$$_printf_percent$$00000000) for _printf_percent
    bgt_command.o(.text) refers to _printf_u.o(.ARM.Collect$$_printf_percent$$0000000A) for _printf_u
    bgt_command.o(.text) refers to _printf_dec.o(.text) for _printf_int_dec
    bgt_command.o(.text) refers to _printf_d.o(.ARM.Collect$$_printf_percent$$00000009) for _printf_d
    bgt_command.o(.text) refers to _printf_f.o(.ARM.Collect$$_printf_percent$$00000003) for _printf_f
    bgt_command.o(.text) refers to printf1.o(x$fpl$printf1) for _printf_fp_dec
    bgt_command.o(.text) refers to _printf_pad.o(.text) for _printf_pre_padding
    bgt_command.o(.text) refers to _printf_s.o(.ARM.Collect$$_printf_percent$$00000014) for _printf_s
    bgt_command.o(.text) refers to _printf_str.o(.text) for _printf_str
    bgt_command.o(.text) refers to rt_memclr_w.o(.text) for __aeabi_memclr4
    bgt_command.o(.text) refers to __2sprintf.o(.text) for __2sprintf
    bgt_command.o(.text) refers to strlen.o(.text) for strlen
    bgt_command.o(.text) refers to rt_memcpy_v6.o(.text) for __aeabi_memcpy
    bgt_command.o(.text) refers to utilities.o(.text) for GetChecksum
    bgt_command.o(.text) refers to bgt_process.o(.text) for BGT_SendString
    bgt_command.o(.text) refers to bgt_data.o(.text) for BGT_GetFlashAddress
    bgt_command.o(.text) refers to dataflash.o(.text) for FLASH_ReadBytes
    bgt_command.o(.text) refers to f2d.o(x$fpl$f2d) for __aeabi_f2d
    bgt_command.o(.text) refers to bgt_command.o(.bss) for tmpData
    bgt_command.o(.text) refers to rt_memcpy_w.o(.text) for __aeabi_memcpy4
    bgt_command.o(.text) refers to bgt_laixe.o(.text) for LaiXe_DocThongTinDangNhapCuaLaiXe
    bgt_command.o(.text) refers to bgt_laixe.o(.bss) for xThongTinLaiXe
    bgt_command.o(.text) refers to main.o(.bss) for xSystem
    bgt_command.o(.text) refers to cauhinh.o(.bss) for xCauHinh
    bgt_command.o(.text) refers to gps_process.o(.text) for GPS_GetValid
    bgt_command.o(.text) refers to fram.o(.text) for FRAM_GetTrangThai
    bgt_command.o(.text) refers to measurement.o(.text) for GetCurrentSpeed
    bgt_command.o(.text) refers to strstr.o(.text) for strstr
    hp2010.o(.text) refers to _printf_percent.o(.ARM.Collect$$_printf_percent$$00000000) for _printf_percent
    hp2010.o(.text) refers to _printf_u.o(.ARM.Collect$$_printf_percent$$0000000A) for _printf_u
    hp2010.o(.text) refers to _printf_dec.o(.text) for _printf_int_dec
    hp2010.o(.text) refers to utilities.o(.text) for mem_set
    hp2010.o(.text) refers to watchdog.o(.text) for Watchdog_Reset
    hp2010.o(.text) refers to stm32f2xx_usart.o(.text) for USART_DeInit
    hp2010.o(.text) refers to stm32f2xx_rcc.o(.text) for RCC_APB1PeriphClockCmd
    hp2010.o(.text) refers to stm32f2xx_gpio.o(.text) for GPIO_PinAFConfig
    hp2010.o(.text) refers to misc.o(.text) for NVIC_PriorityGroupConfig
    hp2010.o(.text) refers to gsm_message.o(.text) for Message_GuiTinDongHo
    hp2010.o(.text) refers to debug.o(.text) for DebugPrint
    hp2010.o(.text) refers to amthanh.o(.text) for AmThanh_PhatAmThanh
    hp2010.o(.text) refers to buzz.o(.text) for Beeps
    hp2010.o(.text) refers to __2sprintf.o(.text) for __2sprintf
    hp2010.o(.text) refers to hp2010.o(.bss) for HP2010
    hp2010.o(.text) refers to hp2010.o(.data) for TrangThai
    hp2010.o(.text) refers to gsm_message.o(.bss) for Message
    hp2010.o(.text) refers to rtc.o(.text) for rtc_gettime
    hp2010.o(.text) refers to bgt_data.o(.text) for Ghidulieudongho
    hp2010.o(.text) refers to strtok.o(.text) for strtok
    hp2010.o(.text) refers to atoi.o(.text) for atoi
    gps_process.o(.text) refers to utilities.o(.text) for GetHexNumberFromString
    gps_process.o(.text) refers to fflt_clz.o(x$fpl$fflt) for __aeabi_i2f
    gps_process.o(.text) refers to faddsub_clz.o(x$fpl$fadd) for __aeabi_fadd
    gps_process.o(.text) refers to atof.o(i.atof) for atof
    gps_process.o(.text) refers to d2f.o(x$fpl$d2f) for __aeabi_d2f
    gps_process.o(.text) refers to fdiv.o(x$fpl$fdiv) for __aeabi_fdiv
    gps_process.o(.text) refers to fmul.o(x$fpl$fmul) for __aeabi_fmul
    gps_process.o(.text) refers to gps_hardware.o(.bss) for GPS
    gps_process.o(.text) refers to gps_process.o(.bss) for GPSControl
    gps_process.o(.text) refers to debug.o(.text) for DebugPrint
    gps_process.o(.text) refers to rtc.o(.text) for RTC_CapNhatThoiGianTuGPS
    gps_process.o(.text) refers to gps_process.o(.data) for GPSResetCount
    gps_hardware.o(.text) refers to stm32f2xx_usart.o(.text) for USART_GetFlagStatus
    gps_hardware.o(.text) refers to stm32f2xx_rcc.o(.text) for RCC_APB1PeriphClockCmd
    gps_hardware.o(.text) refers to stm32f2xx_gpio.o(.text) for GPIO_PinAFConfig
    gps_hardware.o(.text) refers to misc.o(.text) for NVIC_PriorityGroupConfig
    gps_hardware.o(.text) refers to utilities.o(.text) for Delay_ms
    gps_hardware.o(.text) refers to debug.o(.text) for DebugPrint
    gps_hardware.o(.text) refers to gps_process.o(.text) for GPS_SoftwareInitialize
    gps_hardware.o(.text) refers to gps_hardware.o(.bss) for GPS
    gps_hardware.o(.text) refers to main.o(.bss) for xSystem
    gsm_m95.o(.text) refers to watchdog.o(.text) for Watchdog_Reset
    gsm_m95.o(.text) refers to gsm_hardware.o(.text) for GSM_KiemTraKetNoiDenModule
    gsm_m95.o(.text) refers to stm32f2xx_gpio.o(.text) for GPIO_ReadInputDataBit
    gsm_m95.o(.text) refers to utilities.o(.text) for Delay
    gsm_m95.o(.text) refers to gsm_process.o(.text) for GSM_GetIMEI
    gsm_m95.o(.text) refers to debug.o(.text) for DebugPrint
    gsm_m95.o(.text) refers to buzz.o(.text) for Beeps
    gsm_m95.o(.text) refers to gsm_gprs.o(.text) for M95_GPRSConfig
    gsm_m95.o(.text) refers to gsm_sms.o(.text) for SMS_Initialize
    gsm_m95.o(.text) refers to main.o(.bss) for xSystem
    gsm_m95.o(.text) refers to gsm_hardware.o(.bss) for GSM
    gsm_sms.o(.text) refers to _printf_percent.o(.ARM.Collect$$_printf_percent$$00000000) for _printf_percent
    gsm_sms.o(.text) refers to _printf_s.o(.ARM.Collect$$_printf_percent$$00000014) for _printf_s
    gsm_sms.o(.text) refers to _printf_str.o(.text) for _printf_str
    gsm_sms.o(.text) refers to watchdog.o(.text) for Watchdog_Reset
    gsm_sms.o(.text) refers to gsm_hardware.o(.text) for GSM_SendCommand
    gsm_sms.o(.text) refers to rt_memcpy_w.o(.text) for __aeabi_memcpy4
    gsm_sms.o(.text) refers to utilities.o(.text) for Delay
    gsm_sms.o(.text) refers to debug.o(.text) for DebugPrint
    gsm_sms.o(.text) refers to main.o(.text) for XuLyHamQuanTrong
    gsm_sms.o(.text) refers to strstr.o(.text) for strstr
    gsm_sms.o(.text) refers to rt_memcpy_v6.o(.text) for __aeabi_memcpy
    gsm_sms.o(.text) refers to strlen.o(.text) for strlen
    gsm_sms.o(.text) refers to strcpy.o(.text) for strcpy
    gsm_sms.o(.text) refers to main.o(.bss) for xSystem
    gsm_sms.o(.text) refers to gsm_hardware.o(.bss) for GSM
    gsm_sms.o(.text) refers to gsm_sms.o(.bss) for SMSMemory
    gsm_sms.o(.text) refers to __2sprintf.o(.text) for __2sprintf
    gsm_sms.o(.text) refers to gsm_message.o(.text) for Message_PacketKQ
    gsm_sms.o(.text) refers to strcmpv7m.o(.text) for strcmp
    gsm_sms.o(.text) refers to buzz.o(.text) for Beeps
    gsm_sms.o(.text) refers to hardwaremanager.o(.text) for Hardware_SystemReset
    gsm_sms.o(.text) refers to updatefimware.o(.text) for Luuthongtinupdatefimware
    gsm_sms.o(.text) refers to cauhinh.o(.text) for CauHinh_XuLyCaiDatAll
    gsm_sms.o(.text) refers to bgt_laixe.o(.text) for LaiXe_DoiLaiTuTinNhan
    gsm_sms.o(.text) refers to tatdongco.o(.text) for KhoaXe_XuLyTatMayTuSMS
    gsm_sms.o(.text) refers to cauhinh.o(.bss) for xCauHinh
    gsm_gprs.o(.text) refers to _printf_percent.o(.ARM.Collect$$_printf_percent$$00000000) for _printf_percent
    gsm_gprs.o(.text) refers to _printf_d.o(.ARM.Collect$$_printf_percent$$00000009) for _printf_d
    gsm_gprs.o(.text) refers to _printf_dec.o(.text) for _printf_int_dec
    gsm_gprs.o(.text) refers to utilities.o(.text) for mem_set
    gsm_gprs.o(.text) refers to gsm_hardware.o(.text) for GSM_SendATs
    gsm_gprs.o(.text) refers to debug.o(.text) for DebugPrint
    gsm_gprs.o(.text) refers to olddataprocess.o(.text) for OldData_Initialize
    gsm_gprs.o(.text) refers to gsm_message.o(.text) for Message_Initialize
    gsm_gprs.o(.text) refers to stm32f2xx_gpio.o(.text) for GPIO_ResetBits
    gsm_gprs.o(.text) refers to gsm_m95.o(.text) for M95_Initialize
    gsm_gprs.o(.text) refers to watchdog.o(.text) for Watchdog_Reset
    gsm_gprs.o(.text) refers to gsm_sms.o(.text) for SMS_SendQueue
    gsm_gprs.o(.text) refers to gsm_gprs.o(.data) for GPRS
    gsm_gprs.o(.text) refers to gsm_hardware.o(.bss) for GSM
    gsm_gprs.o(.text) refers to main.o(.bss) for xSystem
    gsm_gprs.o(.text) refers to gsm_gprs.o(.bss) for GPRSData
    gsm_gprs.o(.text) refers to gsm_hardware.o(.data) for ThoiGianNhacMay
    gsm_gprs.o(.text) refers to __2sprintf.o(.text) for __2sprintf
    gsm_gprs.o(.text) refers to hardwaremanager.o(.text) for Hardware_SystemReset
    gsm_gprs.o(.text) refers to cauhinh.o(.bss) for xCauHinh
    gsm_process.o(.text) refers to watchdog.o(.text) for Watchdog_Reset
    gsm_process.o(.text) refers to gsm_hardware.o(.text) for GSM_XoaBoDemNhan
    gsm_process.o(.text) refers to strlen.o(.text) for strlen
    gsm_process.o(.text) refers to debug.o(.text) for DebugPrint
    gsm_process.o(.text) refers to main.o(.bss) for xSystem
    gsm_process.o(.text) refers to gsm_hardware.o(.bss) for GSM
    gsm_message.o(.text) refers to _printf_percent.o(.ARM.Collect$$_printf_percent$$00000000) for _printf_percent
    gsm_message.o(.text) refers to _printf_u.o(.ARM.Collect$$_printf_percent$$0000000A) for _printf_u
    gsm_message.o(.text) refers to _printf_dec.o(.text) for _printf_int_dec
    gsm_message.o(.text) refers to _printf_pad.o(.text) for _printf_pre_padding
    gsm_message.o(.text) refers to _printf_f.o(.ARM.Collect$$_printf_percent$$00000003) for _printf_f
    gsm_message.o(.text) refers to printf1.o(x$fpl$printf1) for _printf_fp_dec
    gsm_message.o(.text) refers to _printf_d.o(.ARM.Collect$$_printf_percent$$00000009) for _printf_d
    gsm_message.o(.text) refers to _printf_s.o(.ARM.Collect$$_printf_percent$$00000014) for _printf_s
    gsm_message.o(.text) refers to _printf_str.o(.text) for _printf_str
    gsm_message.o(.text) refers to utilities.o(.text) for mem_set
    gsm_message.o(.text) refers to __2sprintf.o(.text) for __2sprintf
    gsm_message.o(.text) refers to rtc.o(.text) for RTC_ConvertDateToUnix
    gsm_message.o(.text) refers to gps_process.o(.text) for GPS_GetLongitude
    gsm_message.o(.text) refers to f2d.o(x$fpl$f2d) for __aeabi_f2d
    gsm_message.o(.text) refers to measurement.o(.text) for GetVanTocCo
    gsm_message.o(.text) refers to mahoa.o(.text) for MaHoa_Initialize
    gsm_message.o(.text) refers to base64.o(.text) for Base64_Initialize
    gsm_message.o(.text) refers to strlen.o(.text) for strlen
    gsm_message.o(.text) refers to gsm_gprs.o(.bss) for GPRSData
    gsm_message.o(.text) refers to gsm_message.o(.bss) for Message
    gsm_message.o(.text) refers to main.o(.bss) for xSystem
    gsm_message.o(.text) refers to cauhinh.o(.bss) for xCauHinh
    gsm_message.o(.text) refers to bgt_laixe.o(.bss) for xThongTinLaiXe
    gsm_message.o(.text) refers to nhienlieu.o(.bss) for NhienLieu
    gsm_message.o(.text) refers to mahoa.o(.bss) for MaHoa
    gsm_message.o(.text) refers to base64.o(.bss) for Base64
    gsm_message.o(.text) refers to debug.o(.text) for DebugPrint
    gsm_message.o(.text) refers to buzz.o(.text) for Beeps
    gsm_message.o(.text) refers to gsm_gprs.o(.data) for GPRS
    gsm_message.o(.text) refers to fram.o(.text) for FRAM_ReadBytes
    gsm_message.o(.text) refers to watchdog.o(.text) for Watchdog_Reset
    gsm_message.o(.text) refers to rt_memcpy_w.o(.text) for __aeabi_memcpy4
    gsm_hardware.o(.text) refers to _printf_percent.o(.ARM.Collect$$_printf_percent$$00000000) for _printf_percent
    gsm_hardware.o(.text) refers to _printf_s.o(.ARM.Collect$$_printf_percent$$00000014) for _printf_s
    gsm_hardware.o(.text) refers to _printf_str.o(.text) for _printf_str
    gsm_hardware.o(.text) refers to utilities.o(.text) for mem_set
    gsm_hardware.o(.text) refers to stm32f2xx_rcc.o(.text) for RCC_AHB1PeriphClockCmd
    gsm_hardware.o(.text) refers to stm32f2xx_gpio.o(.text) for GPIO_Init
    gsm_hardware.o(.text) refers to stm32f2xx_usart.o(.text) for USART_DeInit
    gsm_hardware.o(.text) refers to misc.o(.text) for NVIC_PriorityGroupConfig
    gsm_hardware.o(.text) refers to debug.o(.text) for DebugPrint
    gsm_hardware.o(.text) refers to watchdog.o(.text) for Watchdog_Reset
    gsm_hardware.o(.text) refers to main.o(.text) for XuLyHamQuanTrong
    gsm_hardware.o(.text) refers to strstr.o(.text) for strstr
    gsm_hardware.o(.text) refers to gsm_sms.o(.text) for SMS_GuiTinNhan
    gsm_hardware.o(.text) refers to __2sprintf.o(.text) for __2sprintf
    gsm_hardware.o(.text) refers to gsm_message.o(.text) for Message_PacketTK
    gsm_hardware.o(.text) refers to gsm_hardware.o(.bss) for GSM
    gsm_hardware.o(.text) refers to main.o(.bss) for xSystem
    gsm_hardware.o(.text) refers to cauhinh.o(.bss) for xCauHinh
    gsm_hardware.o(.text) refers to gsm_sms.o(.bss) for SoDienThoai
    gsm_hardware.o(.text) refers to gsm_hardware.o(.data) for ThoiGianNhacMay
    gsm_hardware.o(.text) refers to gsm_serverprocess.o(.text) for Server_XuLyBanTinNhanDuoc
    gsm_hardware.o(.text) refers to buzz.o(.text) for Beeps
    gsm_hardware.o(.text) refers to gsm_gprs.o(.data) for GPRS
    gsm_serverprocess.o(.text) refers to _printf_percent.o(.ARM.Collect$$_printf_percent$$00000000) for _printf_percent
    gsm_serverprocess.o(.text) refers to _printf_u.o(.ARM.Collect$$_printf_percent$$0000000A) for _printf_u
    gsm_serverprocess.o(.text) refers to _printf_dec.o(.text) for _printf_int_dec
    gsm_serverprocess.o(.text) refers to utilities.o(.text) for GetNumberFromString
    gsm_serverprocess.o(.text) refers to strlen.o(.text) for strlen
    gsm_serverprocess.o(.text) refers to base64.o(.text) for Base64_Decode
    gsm_serverprocess.o(.text) refers to mahoa.o(.text) for MaHoa_EncryptString
    gsm_serverprocess.o(.text) refers to debug.o(.text) for DebugPrint
    gsm_serverprocess.o(.text) refers to rtc.o(.text) for RTC_ConvertUnixToDate
    gsm_serverprocess.o(.text) refers to __2sprintf.o(.text) for __2sprintf
    gsm_serverprocess.o(.text) refers to gsm_message.o(.text) for Message_LuuThongTinDaGuiTinDongHo
    gsm_serverprocess.o(.text) refers to bgt_data.o(.text) for BGT_GetFlashAddress
    gsm_serverprocess.o(.text) refers to dataflash.o(.text) for FLASH_ReadBytes
    gsm_serverprocess.o(.text) refers to gsm_serverprocess.o(.bss) for xServer
    gsm_serverprocess.o(.text) refers to gsm_message.o(.bss) for Message
    gsm_serverprocess.o(.text) refers to olddataprocess.o(.bss) for OldData
    gsm_serverprocess.o(.text) refers to gsm_serverprocess.o(.conststring) for .conststring
    gsm_serverprocess.o(.text) refers to rt_memcpy_w.o(.text) for __aeabi_memcpy4
    gsm_serverprocess.o(.text) refers to olddataprocess.o(.text) for OldData_ThoiGianGuiTinGanNhat
    gsm_serverprocess.o(.text) refers to bgt_laixe.o(.bss) for xThongTinLaiXe
    gsm_serverprocess.o(.text) refers to main.o(.bss) for xSystem
    gsm_serverprocess.o(.text) refers to watchdog.o(.text) for Watchdog_Reset
    gsm_serverprocess.o(.text) refers to strstr.o(.text) for strstr
    gsm_serverprocess.o(.text) refers to buzz.o(.text) for Beeps
    gsm_serverprocess.o(.text) refers to updatefimware.o(.text) for Luuthongtinupdatefimware
    gsm_serverprocess.o(.text) refers to hardwaremanager.o(.text) for Hardware_SystemReset
    gsm_serverprocess.o(.text) refers to cauhinh.o(.text) for CauHinh_XuLyCaiDatAll
    gsm_serverprocess.o(.text) refers to gsm_sms.o(.text) for SMS_NhanTin
    gsm_serverprocess.o(.text) refers to bgt_laixe.o(.text) for LaiXe_DoiLaiTuTinNhan
    gsm_serverprocess.o(.text) refers to gsm_hardware.o(.text) for GSM_SendCommand
    gsm_serverprocess.o(.text) refers to tatdongco.o(.text) for KhoaXe_TatMayTuServer
    gsm_serverprocess.o(.text) refers to stm32f2xx_gpio.o(.text) for GPIO_ResetBits
    gsm_serverprocess.o(.text) refers to amthanh.o(.text) for AmThanh_PhatAmThanh
    gsm_serverprocess.o(.text) refers to hp2010.o(.text) for HP2010_GuiDiaChiXuongDongHo
    gsm_serverprocess.o(.text) refers to cauhinh.o(.bss) for xCauHinh
    rtc.o(.text) refers to stm32f2xx_rtc.o(.text) for RTC_SetTime
    rtc.o(.text) refers to stm32f2xx_rcc.o(.text) for RCC_APB1PeriphClockCmd
    rtc.o(.text) refers to stm32f2xx_pwr.o(.text) for PWR_BackupAccessCmd
    rtc.o(.text) refers to buzz.o(.text) for Beeps
    rtc.o(.text) refers to debug.o(.text) for DebugPuts
    rtc.o(.text) refers to cauhinh.o(.text) for CauHinh_LuuCauHinh
    rtc.o(.text) refers to gps_process.o(.text) for GPS_GetValid
    rtc.o(.text) refers to rtc.o(.data) for RTC_TimeStruct
    rtc.o(.text) refers to rtc.o(.bss) for RTC_InitStructure
    rtc.o(.text) refers to main.o(.bss) for xSystem
    rtc.o(.text) refers to cauhinh.o(.bss) for xCauHinh
    rtc.o(.text) refers to mktime.o(.text) for mktime
    rtc.o(.text) refers to localtime.o(.text) for localtime
    fram.o(.text) refers to stm32f2xx_spi.o(.text) for SPI_I2S_GetFlagStatus
    fram.o(.text) refers to stm32f2xx_gpio.o(.text) for GPIO_ResetBits
    fram.o(.text) refers to utilities.o(.text) for mem_set
    fram.o(.text) refers to stm32f2xx_rcc.o(.text) for RCC_AHB1PeriphClockCmd
    fram.o(.text) refers to debug.o(.text) for DebugPuts
    fram.o(.text) refers to fram.o(.data) for FRAM
    dataflash.o(.text) refers to stm32f2xx_spi.o(.text) for SPI_I2S_GetFlagStatus
    dataflash.o(.text) refers to stm32f2xx_gpio.o(.text) for GPIO_ResetBits
    dataflash.o(.text) refers to stm32f2xx_rcc.o(.text) for RCC_AHB1PeriphClockCmd
    dataflash.o(.text) refers to debug.o(.text) for DebugPrint
    dataflash.o(.text) refers to buzz.o(.text) for Beep
    dataflash.o(.text) refers to watchdog.o(.text) for Watchdog_Reset
    dataflash.o(.text) refers to utilities.o(.text) for Delayus
    dataflash.o(.text) refers to dataflash.o(.data) for Flash
    des.o(.text) refers to des.o(.data) for pc1
    des.o(.text) refers to des.o(.bss) for KnL
    base64.o(.text) refers to utilities.o(.text) for mem_set
    base64.o(.text) refers to base64.o(.bss) for Base64
    base64.o(.text) refers to base64.o(.constdata) for pr2six
    mahoa.o(.text) refers to utilities.o(.text) for mem_set
    mahoa.o(.text) refers to des.o(.text) for DES_keyschedule_enc
    mahoa.o(.text) refers to strlen.o(.text) for strlen
    mahoa.o(.text) refers to mahoa.o(.bss) for MaHoa
    amthanh.o(.text) refers to stm32f2xx_gpio.o(.text) for GPIO_SetBits
    amthanh.o(.text) refers to stm32f2xx_rcc.o(.text) for RCC_AHB1PeriphClockCmd
    amthanh.o(.text) refers to debug.o(.text) for DebugPrint
    amthanh.o(.text) refers to utilities.o(.text) for Delay_ms
    amthanh.o(.text) refers to amthanh.o(.data) for AmThanh
    nhienlieu.o(.text) refers to stm32f2xx_rcc.o(.text) for RCC_AHB1PeriphClockCmd
    nhienlieu.o(.text) refers to stm32f2xx_gpio.o(.text) for GPIO_Init
    nhienlieu.o(.text) refers to dflt_clz.o(x$fpl$dfltu) for __aeabi_ui2d
    nhienlieu.o(.text) refers to dmul.o(x$fpl$dmul) for __aeabi_dmul
    nhienlieu.o(.text) refers to dfixu.o(x$fpl$dfixu) for __aeabi_d2uiz
    nhienlieu.o(.text) refers to debug.o(.text) for DebugPrint
    nhienlieu.o(.text) refers to nhienlieu.o(.bss) for NhienLieu
    nhienlieu.o(.text) refers to nhienlieu.o(.conststring) for .conststring
    nhienlieu.o(.text) refers to measurement.o(.bss) for ADC_RegularConvertedValueTab
    stm32f2xx_adc.o(.text) refers to stm32f2xx_rcc.o(.text) for RCC_APB2PeriphResetCmd
    stm32f2xx_gpio.o(.text) refers to stm32f2xx_rcc.o(.text) for RCC_AHB1PeriphResetCmd
    stm32f2xx_pwr.o(.text) refers to stm32f2xx_rcc.o(.text) for RCC_APB1PeriphResetCmd
    stm32f2xx_rcc.o(.text) refers to stm32f2xx_rcc.o(.data) for APBAHBPrescTable
    stm32f2xx_spi.o(.text) refers to stm32f2xx_rcc.o(.text) for RCC_APB2PeriphResetCmd
    stm32f2xx_syscfg.o(.text) refers to stm32f2xx_rcc.o(.text) for RCC_APB2PeriphResetCmd
    stm32f2xx_tim.o(.text) refers to stm32f2xx_rcc.o(.text) for RCC_APB2PeriphResetCmd
    stm32f2xx_usart.o(.text) refers to stm32f2xx_rcc.o(.text) for RCC_APB2PeriphResetCmd
    startup_stm32f2xx.o(STACK) refers (Special) to heapauxi.o(.text) for __use_two_region_memory
    startup_stm32f2xx.o(HEAP) refers (Special) to heapauxi.o(.text) for __use_two_region_memory
    startup_stm32f2xx.o(RESET) refers (Special) to heapauxi.o(.text) for __use_two_region_memory
    startup_stm32f2xx.o(RESET) refers to startup_stm32f2xx.o(STACK) for __initial_sp
    startup_stm32f2xx.o(RESET) refers to startup_stm32f2xx.o(.text) for Reset_Handler
    startup_stm32f2xx.o(RESET) refers to interrupt.o(.text) for SysTick_Handler
    startup_stm32f2xx.o(.text) refers (Special) to heapauxi.o(.text) for __use_two_region_memory
    startup_stm32f2xx.o(.text) refers to system_stm32f2xx.o(.text) for SystemInit
    startup_stm32f2xx.o(.text) refers to __main.o(!!!main) for __main
    startup_stm32f2xx.o(.text) refers to startup_stm32f2xx.o(HEAP) for Heap_Mem
    startup_stm32f2xx.o(.text) refers to startup_stm32f2xx.o(STACK) for Stack_Mem
    system_stm32f2xx.o(.text) refers to system_stm32f2xx.o(.data) for SystemCoreClock
    __2sprintf.o(.text) refers to _printf_char_common.o(.text) for _printf_char_common
    __2sprintf.o(.text) refers to _sputc.o(.text) for _sputc
    noretval__2sprintf.o(.text) refers to _printf_char_common.o(.text) for _printf_char_common
    noretval__2sprintf.o(.text) refers to _sputc.o(.text) for _sputc
    __printf.o(.text) refers to _printf_percent.o(.ARM.Collect$$_printf_percent$$00000000) for _printf_percent
    _printf_str.o(.text) refers (Special) to _printf_char.o(.text) for _printf_cs_common
    _printf_str.o(.text) refers (Weak) to _printf_pad.o(.text) for _printf_pre_padding
    _printf_str.o(.text) refers (Weak) to _printf_pad.o(.text) for _printf_post_padding
    _printf_dec.o(.text) refers to _printf_intcommon.o(.text) for _printf_int_common
    __printf_flags.o(.text) refers to _printf_percent.o(.ARM.Collect$$_printf_percent$$00000000) for _printf_percent
    __printf_flags.o(.text) refers to __printf_flags.o(.constdata) for .constdata
    __printf_ss.o(.text) refers to _printf_percent.o(.ARM.Collect$$_printf_percent$$00000000) for _printf_percent
    __printf_flags_ss.o(.text) refers to _printf_percent.o(.ARM.Collect$$_printf_percent$$00000000) for _printf_percent
    __printf_flags_ss.o(.text) refers to __printf_flags_ss.o(.constdata) for .constdata
    __printf_wp.o(.text) refers to __printf_wp.o(i._is_digit) for _is_digit
    __printf_wp.o(.text) refers to _printf_percent.o(.ARM.Collect$$_printf_percent$$00000000) for _printf_percent
    __printf_flags_wp.o(.text) refers to __printf_wp.o(i._is_digit) for _is_digit
    __printf_flags_wp.o(.text) refers to _printf_percent.o(.ARM.Collect$$_printf_percent$$00000000) for _printf_percent
    __printf_flags_wp.o(.text) refers to __printf_flags_wp.o(.constdata) for .constdata
    __printf_ss_wp.o(.text) refers to __printf_wp.o(i._is_digit) for _is_digit
    __printf_ss_wp.o(.text) refers to _printf_percent.o(.ARM.Collect$$_printf_percent$$00000000) for _printf_percent
    __printf_flags_ss_wp.o(.text) refers to __printf_wp.o(i._is_digit) for _is_digit
    __printf_flags_ss_wp.o(.text) refers to _printf_percent.o(.ARM.Collect$$_printf_percent$$00000000) for _printf_percent
    __printf_flags_ss_wp.o(.text) refers to __printf_flags_ss_wp.o(.constdata) for .constdata
    _printf_s.o(.ARM.Collect$$_printf_percent$$00000014) refers (Weak) to _printf_char.o(.text) for _printf_string
    _printf_d.o(.ARM.Collect$$_printf_percent$$00000009) refers (Weak) to _printf_dec.o(.text) for _printf_int_dec
    _printf_u.o(.ARM.Collect$$_printf_percent$$0000000A) refers (Weak) to _printf_dec.o(.text) for _printf_int_dec
    _printf_f.o(.ARM.Collect$$_printf_percent$$00000003) refers (Weak) to printf1.o(x$fpl$printf1) for _printf_fp_dec
    _printf_percent.o(.ARM.Collect$$_printf_percent$$00000000) refers (Special) to _printf_percent_end.o(.ARM.Collect$$_printf_percent$$00000017) for _printf_percent_end
    atoi.o(.text) refers to rt_errno_addr_intlibspace.o(.text) for __aeabi_errno_addr
    atoi.o(.text) refers to strtol.o(.text) for strtol
    strtok.o(.text) refers to strtok_int.o(.text) for __strtok_internal
    strtok.o(.text) refers to strtok.o(.data) for .data
    rt_memcpy_v6.o(.text) refers to rt_memcpy_w.o(.text) for __aeabi_memcpy4
    localtime.o(.text) refers to localtime_internal.o(.text) for _localtime_r
    localtime.o(.text) refers to localtime.o(.bss) for .bss
    mktime.o(.text) refers to _monlen.o(.constdata) for _monlen
    __main.o(!!!main) refers to __rtentry.o(.ARM.Collect$$rtentry$$00000000) for __rt_entry
    d2f.o(x$fpl$d2f) refers (Special) to usenofp.o(x$fpl$usenofp) for __I$use$fp
    d2f.o(x$fpl$d2f) refers to fretinf.o(x$fpl$fretinf) for __fpl_fretinf
    d2f.o(x$fpl$d2f) refers to dnaninf.o(x$fpl$dnaninf) for __fpl_dnaninf
    dfixu.o(x$fpl$dfixu) refers (Special) to usenofp.o(x$fpl$usenofp) for __I$use$fp
    dfixu.o(x$fpl$dfixu) refers to dnaninf.o(x$fpl$dnaninf) for __fpl_dnaninf
    dfixu.o(x$fpl$dfixur) refers (Special) to usenofp.o(x$fpl$usenofp) for __I$use$fp
    dfixu.o(x$fpl$dfixur) refers to dnaninf.o(x$fpl$dnaninf) for __fpl_dnaninf
    dflt_clz.o(x$fpl$dfltu) refers (Special) to usenofp.o(x$fpl$usenofp) for __I$use$fp
    dflt_clz.o(x$fpl$dflt) refers (Special) to usenofp.o(x$fpl$usenofp) for __I$use$fp
    dflt_clz.o(x$fpl$dfltn) refers (Special) to usenofp.o(x$fpl$usenofp) for __I$use$fp
    dmul.o(x$fpl$dmul) refers (Special) to usenofp.o(x$fpl$usenofp) for __I$use$fp
    dmul.o(x$fpl$dmul) refers to dretinf.o(x$fpl$dretinf) for __fpl_dretinf
    dmul.o(x$fpl$dmul) refers to dnaninf.o(x$fpl$dnaninf) for __fpl_dnaninf
    f2d.o(x$fpl$f2d) refers (Special) to usenofp.o(x$fpl$usenofp) for __I$use$fp
    f2d.o(x$fpl$f2d) refers to fnaninf.o(x$fpl$fnaninf) for __fpl_fnaninf
    f2d.o(x$fpl$f2d) refers to dretinf.o(x$fpl$dretinf) for __fpl_dretinf
    faddsub_clz.o(x$fpl$fadd) refers (Special) to usenofp.o(x$fpl$usenofp) for __I$use$fp
    faddsub_clz.o(x$fpl$fadd) refers to faddsub_clz.o(x$fpl$fsub) for _fsub1
    faddsub_clz.o(x$fpl$fadd) refers to fretinf.o(x$fpl$fretinf) for __fpl_fretinf
    faddsub_clz.o(x$fpl$fadd) refers to fnaninf.o(x$fpl$fnaninf) for __fpl_fnaninf
    faddsub_clz.o(x$fpl$frsb) refers (Special) to usenofp.o(x$fpl$usenofp) for __I$use$fp
    faddsub_clz.o(x$fpl$frsb) refers to faddsub_clz.o(x$fpl$fadd) for _fadd1
    faddsub_clz.o(x$fpl$frsb) refers to faddsub_clz.o(x$fpl$fsub) for _fsub1
    faddsub_clz.o(x$fpl$fsub) refers (Special) to usenofp.o(x$fpl$usenofp) for __I$use$fp
    faddsub_clz.o(x$fpl$fsub) refers to faddsub_clz.o(x$fpl$fadd) for _fadd1
    faddsub_clz.o(x$fpl$fsub) refers to fnaninf.o(x$fpl$fnaninf) for __fpl_fnaninf
    fdiv.o(x$fpl$frdiv) refers (Special) to usenofp.o(x$fpl$usenofp) for __I$use$fp
    fdiv.o(x$fpl$frdiv) refers to fdiv.o(x$fpl$fdiv) for _fdiv1
    fdiv.o(x$fpl$fdiv) refers (Special) to usenofp.o(x$fpl$usenofp) for __I$use$fp
    fdiv.o(x$fpl$fdiv) refers to fretinf.o(x$fpl$fretinf) for __fpl_fretinf
    fdiv.o(x$fpl$fdiv) refers to fnaninf.o(x$fpl$fnaninf) for __fpl_fnaninf
    ffixu.o(x$fpl$ffixu) refers (Special) to usenofp.o(x$fpl$usenofp) for __I$use$fp
    ffixu.o(x$fpl$ffixu) refers to fnaninf.o(x$fpl$fnaninf) for __fpl_fnaninf
    ffixu.o(x$fpl$ffixur) refers (Special) to usenofp.o(x$fpl$usenofp) for __I$use$fp
    ffixu.o(x$fpl$ffixur) refers to fnaninf.o(x$fpl$fnaninf) for __fpl_fnaninf
    fflt_clz.o(x$fpl$ffltu) refers (Special) to usenofp.o(x$fpl$usenofp) for __I$use$fp
    fflt_clz.o(x$fpl$fflt) refers (Special) to usenofp.o(x$fpl$usenofp) for __I$use$fp
    fflt_clz.o(x$fpl$ffltn) refers (Special) to usenofp.o(x$fpl$usenofp) for __I$use$fp
    fmul.o(x$fpl$fmul) refers (Special) to usenofp.o(x$fpl$usenofp) for __I$use$fp
    fmul.o(x$fpl$fmul) refers to fretinf.o(x$fpl$fretinf) for __fpl_fretinf
    fmul.o(x$fpl$fmul) refers to fnaninf.o(x$fpl$fnaninf) for __fpl_fnaninf
    printf1.o(x$fpl$printf1) refers to _printf_fp_dec.o(.text) for _printf_fp_dec_real
    atof.o(i.__softfp_atof) refers (Special) to usenofp.o(x$fpl$usenofp) for __I$use$fp
    atof.o(i.__softfp_atof) refers to _rserrno.o(.text) for __read_errno
    atof.o(i.__softfp_atof) refers to strtod.o(.text) for __strtod_int
    atof.o(i.atof) refers (Special) to usenofp.o(x$fpl$usenofp) for __I$use$fp
    atof.o(i.atof) refers to _rserrno.o(.text) for __read_errno
    atof.o(i.atof) refers to strtod.o(.text) for __strtod_int
    __rtentry.o(.ARM.Collect$$rtentry$$00000000) refers (Special) to __rtentry2.o(.ARM.Collect$$rtentry$$0000000A) for __rt_entry_li
    __rtentry.o(.ARM.Collect$$rtentry$$00000000) refers (Special) to __rtentry2.o(.ARM.Collect$$rtentry$$0000000D) for __rt_entry_main
    __rtentry.o(.ARM.Collect$$rtentry$$00000000) refers (Special) to __rtentry2.o(.ARM.Collect$$rtentry$$0000000C) for __rt_entry_postli_1
    __rtentry.o(.ARM.Collect$$rtentry$$00000000) refers (Special) to __rtentry2.o(.ARM.Collect$$rtentry$$00000009) for __rt_entry_postsh_1
    __rtentry.o(.ARM.Collect$$rtentry$$00000000) refers (Special) to __rtentry2.o(.ARM.Collect$$rtentry$$00000002) for __rt_entry_presh_1
    __rtentry.o(.ARM.Collect$$rtentry$$00000000) refers (Special) to __rtentry4.o(.ARM.Collect$$rtentry$$00000004) for __rt_entry_sh
    rt_errno_addr.o(.text) refers to rt_errno_addr.o(.bss) for __aeabi_errno_addr_data
    rt_errno_addr_intlibspace.o(.text) refers to libspace.o(.bss) for __libspace_start
    _rserrno.o(.text) refers to rt_errno_addr_intlibspace.o(.text) for __aeabi_errno_addr
    _printf_intcommon.o(.text) refers (Weak) to _printf_pad.o(.text) for _printf_pre_padding
    _printf_intcommon.o(.text) refers (Weak) to _printf_pad.o(.text) for _printf_pre_padding
    _printf_intcommon.o(.text) refers (Weak) to _printf_pad.o(.text) for _printf_post_padding
    _printf_fp_dec.o(.text) refers (Special) to usenofp.o(x$fpl$usenofp) for __I$use$fp
    _printf_fp_dec.o(.text) refers (Special) to lc_numeric_c.o(locale$$code) for _get_lc_numeric
    _printf_fp_dec.o(.text) refers to bigflt0.o(.text) for _btod_etento
    _printf_fp_dec.o(.text) refers to btod.o(CL$$btod_d2e) for _btod_d2e
    _printf_fp_dec.o(.text) refers to btod.o(CL$$btod_ediv) for _btod_ediv
    _printf_fp_dec.o(.text) refers to btod.o(CL$$btod_emul) for _btod_emul
    _printf_fp_dec.o(.text) refers to lludiv10.o(.text) for _ll_udiv10
    _printf_fp_dec.o(.text) refers to fpclassify.o(i.__ARM_fpclassify) for __ARM_fpclassify
    _printf_fp_dec.o(.text) refers to _printf_fp_infnan.o(.text) for _printf_fp_infnan
    _printf_fp_dec.o(.text) refers (Weak) to _printf_pad.o(.text) for _printf_pre_padding
    _printf_fp_dec.o(.text) refers (Weak) to _printf_pad.o(.text) for _printf_pre_padding
    _printf_fp_dec.o(.text) refers to rt_locale_intlibspace.o(.text) for __rt_locale
    _printf_fp_dec.o(.text) refers (Weak) to _printf_pad.o(.text) for _printf_post_padding
    _printf_char_common.o(.text) refers to __printf_flags_wp.o(.text) for __printf
    _printf_char.o(.text) refers (Weak) to _printf_str.o(.text) for _printf_str
    strtod.o(.text) refers (Special) to lc_numeric_c.o(locale$$code) for _get_lc_numeric
    strtod.o(.text) refers to scanf1.o(x$fpl$scanf1) for _scanf_real
    strtod.o(.text) refers to _sgetc.o(.text) for _sgetc
    strtod.o(.text) refers to isspace.o(.text) for isspace
    strtol.o(.text) refers to rt_ctype_table.o(.text) for __rt_ctype_table
    strtol.o(.text) refers to _strtoul.o(.text) for _strtoul
    strtol.o(.text) refers to rt_errno_addr_intlibspace.o(.text) for __aeabi_errno_addr
    strtok_int.o(.text) refers to strspn.o(.text) for strspn
    strtok_int.o(.text) refers to strcspn.o(.text) for strcspn
    localtime_internal.o(.text) refers to rt_memclr_w.o(.text) for __aeabi_memclr4
    localtime_internal.o(.text) refers to _monlen.o(.constdata) for _monlen
    dnaninf.o(x$fpl$dnaninf) refers (Special) to usenofp.o(x$fpl$usenofp) for __I$use$fp
    dretinf.o(x$fpl$dretinf) refers (Special) to usenofp.o(x$fpl$usenofp) for __I$use$fp
    fnaninf.o(x$fpl$fnaninf) refers (Special) to usenofp.o(x$fpl$usenofp) for __I$use$fp
    fretinf.o(x$fpl$fretinf) refers (Special) to usenofp.o(x$fpl$usenofp) for __I$use$fp
    libspace.o(.text) refers to libspace.o(.bss) for __libspace_start
    __rtentry2.o(.ARM.Collect$$rtentry$$00000008) refers to boardinit2.o(.text) for _platform_post_stackheap_init
    __rtentry2.o(.ARM.Collect$$rtentry$$0000000A) refers to libinit.o(.ARM.Collect$$libinit$$00000000) for __rt_lib_init
    __rtentry2.o(.ARM.Collect$$rtentry$$0000000B) refers to boardinit3.o(.text) for _platform_post_lib_init
    __rtentry2.o(.ARM.Collect$$rtentry$$0000000D) refers to main.o(.text) for main
    __rtentry2.o(.ARM.Collect$$rtentry$$0000000D) refers to exit.o(.text) for exit
    __rtentry2.o(.ARM.exidx) refers to __rtentry2.o(.ARM.Collect$$rtentry$$00000001) for .ARM.Collect$$rtentry$$00000001
    __rtentry2.o(.ARM.exidx) refers to __rtentry2.o(.ARM.Collect$$rtentry$$00000008) for .ARM.Collect$$rtentry$$00000008
    __rtentry2.o(.ARM.exidx) refers to __rtentry2.o(.ARM.Collect$$rtentry$$0000000A) for .ARM.Collect$$rtentry$$0000000A
    __rtentry2.o(.ARM.exidx) refers to __rtentry2.o(.ARM.Collect$$rtentry$$0000000B) for .ARM.Collect$$rtentry$$0000000B
    __rtentry2.o(.ARM.exidx) refers to __rtentry2.o(.ARM.Collect$$rtentry$$0000000D) for .ARM.Collect$$rtentry$$0000000D
    __rtentry4.o(.ARM.Collect$$rtentry$$00000004) refers to sys_stackheap_outer.o(.text) for __user_setup_stackheap
    __rtentry4.o(.ARM.exidx) refers to __rtentry4.o(.ARM.Collect$$rtentry$$00000004) for .ARM.Collect$$rtentry$$00000004
    rt_ctype_table.o(.text) refers to rt_locale_intlibspace.o(.text) for __rt_locale
    rt_ctype_table.o(.text) refers to lc_ctype_c.o(locale$$code) for _get_lc_ctype
    rt_locale.o(.text) refers to rt_locale.o(.bss) for __rt_locale_data
    rt_locale_intlibspace.o(.text) refers to libspace.o(.bss) for __libspace_start
    isspace.o(.text) refers to rt_ctype_table.o(.text) for __rt_ctype_table
    _printf_fp_infnan.o(.text) refers (Weak) to _printf_pad.o(.text) for _printf_pre_padding
    _printf_fp_infnan.o(.text) refers (Weak) to _printf_pad.o(.text) for _printf_post_padding
    _strtoul.o(.text) refers to _chval.o(.text) for _chval
    _strtoul.o(.text) refers to rt_errno_addr_intlibspace.o(.text) for __aeabi_errno_addr
    bigflt0.o(.text) refers (Special) to usenofp.o(x$fpl$usenofp) for __I$use$fp
    bigflt0.o(.text) refers to btod.o(CL$$btod_emul) for _btod_emul
    bigflt0.o(.text) refers to btod.o(CL$$btod_ediv) for _btod_ediv
    bigflt0.o(.text) refers to bigflt0.o(.constdata) for .constdata
    bigflt0.o(.constdata) refers (Special) to usenofp.o(x$fpl$usenofp) for __I$use$fp
    btod.o(CL$$btod_d2e) refers (Special) to usenofp.o(x$fpl$usenofp) for __I$use$fp
    btod.o(CL$$btod_d2e) refers to btod.o(CL$$btod_d2e_norm_op1) for _d2e_norm_op1
    btod.o(CL$$btod_d2e_norm_op1) refers (Special) to usenofp.o(x$fpl$usenofp) for __I$use$fp
    btod.o(CL$$btod_d2e_norm_op1) refers to btod.o(CL$$btod_d2e_denorm_low) for _d2e_denorm_low
    btod.o(CL$$btod_d2e_denorm_low) refers (Special) to usenofp.o(x$fpl$usenofp) for __I$use$fp
    btod.o(CL$$btod_emul) refers (Special) to usenofp.o(x$fpl$usenofp) for __I$use$fp
    btod.o(CL$$btod_emul) refers to btod.o(CL$$btod_mult_common) for __btod_mult_common
    btod.o(CL$$btod_emul) refers to btod.o(CL$$btod_e2e) for _e2e
    btod.o(CL$$btod_ediv) refers (Special) to usenofp.o(x$fpl$usenofp) for __I$use$fp
    btod.o(CL$$btod_ediv) refers to btod.o(CL$$btod_div_common) for __btod_div_common
    btod.o(CL$$btod_ediv) refers to btod.o(CL$$btod_e2e) for _e2e
    btod.o(CL$$btod_emuld) refers (Special) to usenofp.o(x$fpl$usenofp) for __I$use$fp
    btod.o(CL$$btod_emuld) refers to btod.o(CL$$btod_mult_common) for __btod_mult_common
    btod.o(CL$$btod_emuld) refers to btod.o(CL$$btod_e2d) for _e2d
    btod.o(CL$$btod_edivd) refers (Special) to usenofp.o(x$fpl$usenofp) for __I$use$fp
    btod.o(CL$$btod_edivd) refers to btod.o(CL$$btod_div_common) for __btod_div_common
    btod.o(CL$$btod_edivd) refers to btod.o(CL$$btod_e2d) for _e2d
    btod.o(CL$$btod_e2e) refers (Special) to usenofp.o(x$fpl$usenofp) for __I$use$fp
    btod.o(CL$$btod_e2d) refers (Special) to usenofp.o(x$fpl$usenofp) for __I$use$fp
    btod.o(CL$$btod_e2d) refers to btod.o(CL$$btod_e2e) for _e2e
    btod.o(CL$$btod_mult_common) refers (Special) to usenofp.o(x$fpl$usenofp) for __I$use$fp
    btod.o(CL$$btod_div_common) refers (Special) to usenofp.o(x$fpl$usenofp) for __I$use$fp
    lc_numeric_c.o(locale$$data) refers (Special) to libinit2.o(.ARM.Collect$$libinit$$00000016) for __rt_lib_init_lc_numeric_2
    lc_numeric_c.o(locale$$code) refers (Special) to libinit2.o(.ARM.Collect$$libinit$$00000016) for __rt_lib_init_lc_numeric_2
    lc_numeric_c.o(locale$$code) refers to strcmpv7m.o(.text) for strcmp
    lc_numeric_c.o(locale$$code) refers to lc_numeric_c.o(locale$$data) for __lcnum_c_name
    istatus.o(x$fpl$ieeestatus) refers (Special) to usenofp.o(x$fpl$usenofp) for __I$use$fp
    scanf1.o(x$fpl$scanf1) refers to scanf_fp.o(.text) for _scanf_really_real
    fpclassify.o(i.__ARM_fpclassify) refers (Special) to usenofp.o(x$fpl$usenofp) for __I$use$fp
    sys_stackheap_outer.o(.text) refers to libspace.o(.text) for __user_perproc_libspace
    sys_stackheap_outer.o(.text) refers to startup_stm32f2xx.o(.text) for __user_initial_stackheap
    scanf_fp.o(.text) refers (Special) to usenofp.o(x$fpl$usenofp) for __I$use$fp
    scanf_fp.o(.text) refers (Special) to lc_numeric_c.o(locale$$code) for _get_lc_numeric
    scanf_fp.o(.text) refers to rt_errno_addr_intlibspace.o(.text) for __aeabi_errno_addr
    scanf_fp.o(.text) refers to bigflt0.o(.text) for _btod_etento
    scanf_fp.o(.text) refers to btod.o(CL$$btod_emuld) for _btod_emuld
    scanf_fp.o(.text) refers to btod.o(CL$$btod_edivd) for _btod_edivd
    scanf_fp.o(.text) refers to rt_locale_intlibspace.o(.text) for __rt_locale
    scanf_fp.o(.text) refers to scanf2.o(x$fpl$scanf2) for _scanf_infnan
    scanf_fp.o(.text) refers to __printf_wp.o(i._is_digit) for _is_digit
    scanf_fp.o(.text) refers to narrow.o(i.__mathlib_narrow) for __mathlib_narrow
    scanf_fp.o(.text) refers to fpconst.o(c$$dinf) for __huge_val
    lc_ctype_c.o(locale$$data) refers (Special) to libinit2.o(.ARM.Collect$$libinit$$00000012) for __rt_lib_init_lc_ctype_2
    lc_ctype_c.o(locale$$code) refers (Special) to libinit2.o(.ARM.Collect$$libinit$$00000012) for __rt_lib_init_lc_ctype_2
    lc_ctype_c.o(locale$$code) refers to strcmpv7m.o(.text) for strcmp
    lc_ctype_c.o(locale$$code) refers to lc_ctype_c.o(locale$$data) for __lcctype_c_name
    exit.o(.text) refers to rtexit.o(.ARM.Collect$$rtexit$$00000000) for __rt_exit
    libinit.o(.ARM.Collect$$libinit$$00000000) refers (Special) to libinit2.o(.ARM.Collect$$libinit$$0000002E) for __rt_lib_init_alloca_1
    libinit.o(.ARM.Collect$$libinit$$00000000) refers (Special) to libinit2.o(.ARM.Collect$$libinit$$0000002C) for __rt_lib_init_argv_1
    libinit.o(.ARM.Collect$$libinit$$00000000) refers (Special) to libinit2.o(.ARM.Collect$$libinit$$0000001B) for __rt_lib_init_atexit_1
    libinit.o(.ARM.Collect$$libinit$$00000000) refers (Special) to libinit2.o(.ARM.Collect$$libinit$$00000021) for __rt_lib_init_clock_1
    libinit.o(.ARM.Collect$$libinit$$00000000) refers (Special) to libinit2.o(.ARM.Collect$$libinit$$00000032) for __rt_lib_init_cpp_1
    libinit.o(.ARM.Collect$$libinit$$00000000) refers (Special) to libinit2.o(.ARM.Collect$$libinit$$00000030) for __rt_lib_init_exceptions_1
    libinit.o(.ARM.Collect$$libinit$$00000000) refers (Special) to libinit2.o(.ARM.Collect$$libinit$$00000002) for __rt_lib_init_fp_1
    libinit.o(.ARM.Collect$$libinit$$00000000) refers (Special) to libinit2.o(.ARM.Collect$$libinit$$0000001F) for __rt_lib_init_fp_trap_1
    libinit.o(.ARM.Collect$$libinit$$00000000) refers (Special) to libinit2.o(.ARM.Collect$$libinit$$00000023) for __rt_lib_init_getenv_1
    libinit.o(.ARM.Collect$$libinit$$00000000) refers (Special) to libinit2.o(.ARM.Collect$$libinit$$0000000A) for __rt_lib_init_heap_1
    libinit.o(.ARM.Collect$$libinit$$00000000) refers (Special) to libinit2.o(.ARM.Collect$$libinit$$00000011) for __rt_lib_init_lc_collate_1
    libinit.o(.ARM.Collect$$libinit$$00000000) refers (Special) to libinit2.o(.ARM.Collect$$libinit$$00000013) for __rt_lib_init_lc_ctype_1
    libinit.o(.ARM.Collect$$libinit$$00000000) refers (Special) to libinit2.o(.ARM.Collect$$libinit$$00000015) for __rt_lib_init_lc_monetary_1
    libinit.o(.ARM.Collect$$libinit$$00000000) refers (Special) to libinit2.o(.ARM.Collect$$libinit$$00000017) for __rt_lib_init_lc_numeric_1
    libinit.o(.ARM.Collect$$libinit$$00000000) refers (Special) to libinit2.o(.ARM.Collect$$libinit$$00000019) for __rt_lib_init_lc_time_1
    libinit.o(.ARM.Collect$$libinit$$00000000) refers (Special) to libinit2.o(.ARM.Collect$$libinit$$00000004) for __rt_lib_init_preinit_1
    libinit.o(.ARM.Collect$$libinit$$00000000) refers (Special) to libinit2.o(.ARM.Collect$$libinit$$0000000E) for __rt_lib_init_rand_1
    libinit.o(.ARM.Collect$$libinit$$00000000) refers (Special) to libinit2.o(.ARM.Collect$$libinit$$00000033) for __rt_lib_init_return
    libinit.o(.ARM.Collect$$libinit$$00000000) refers (Special) to libinit2.o(.ARM.Collect$$libinit$$0000001D) for __rt_lib_init_signal_1
    libinit.o(.ARM.Collect$$libinit$$00000000) refers (Special) to libinit2.o(.ARM.Collect$$libinit$$00000025) for __rt_lib_init_stdio_1
    libinit.o(.ARM.Collect$$libinit$$00000000) refers (Special) to libinit2.o(.ARM.Collect$$libinit$$0000000C) for __rt_lib_init_user_alloc_1
    libinit2.o(.ARM.Collect$$libinit$$0000000F) refers (Weak) to rt_locale_intlibspace.o(.text) for __rt_locale
    libinit2.o(.ARM.Collect$$libinit$$00000010) refers to libinit2.o(.ARM.Collect$$libinit$$0000000F) for .ARM.Collect$$libinit$$0000000F
    libinit2.o(.ARM.Collect$$libinit$$00000012) refers to libinit2.o(.ARM.Collect$$libinit$$0000000F) for .ARM.Collect$$libinit$$0000000F
    libinit2.o(.ARM.Collect$$libinit$$00000012) refers (Weak) to lc_ctype_c.o(locale$$code) for _get_lc_ctype
    libinit2.o(.ARM.Collect$$libinit$$00000014) refers to libinit2.o(.ARM.Collect$$libinit$$0000000F) for .ARM.Collect$$libinit$$0000000F
    libinit2.o(.ARM.Collect$$libinit$$00000016) refers to libinit2.o(.ARM.Collect$$libinit$$0000000F) for .ARM.Collect$$libinit$$0000000F
    libinit2.o(.ARM.Collect$$libinit$$00000016) refers (Weak) to lc_numeric_c.o(locale$$code) for _get_lc_numeric
    libinit2.o(.ARM.Collect$$libinit$$00000018) refers to libinit2.o(.ARM.Collect$$libinit$$0000000F) for .ARM.Collect$$libinit$$0000000F
    libinit2.o(.ARM.Collect$$libinit$$00000026) refers to argv_veneer.o(.emb_text) for __ARM_argv_veneer
    libinit2.o(.ARM.Collect$$libinit$$00000027) refers to argv_veneer.o(.emb_text) for __ARM_argv_veneer
    rtexit.o(.ARM.Collect$$rtexit$$00000000) refers (Special) to rtexit2.o(.ARM.Collect$$rtexit$$00000004) for __rt_exit_exit
    rtexit.o(.ARM.Collect$$rtexit$$00000000) refers (Special) to rtexit2.o(.ARM.Collect$$rtexit$$00000003) for __rt_exit_ls
    rtexit.o(.ARM.Collect$$rtexit$$00000000) refers (Special) to rtexit2.o(.ARM.Collect$$rtexit$$00000002) for __rt_exit_prels_1
    rtexit.o(.ARM.exidx) refers (Special) to rtexit2.o(.ARM.Collect$$rtexit$$00000004) for __rt_exit_exit
    rtexit.o(.ARM.exidx) refers (Special) to rtexit2.o(.ARM.Collect$$rtexit$$00000003) for __rt_exit_ls
    rtexit.o(.ARM.exidx) refers (Special) to rtexit2.o(.ARM.Collect$$rtexit$$00000002) for __rt_exit_prels_1
    rtexit.o(.ARM.exidx) refers to rtexit.o(.ARM.Collect$$rtexit$$00000000) for .ARM.Collect$$rtexit$$00000000
    argv_veneer.o(.emb_text) refers to no_argv.o(.text) for __ARM_get_argv
    fpconst.o(c$$dinf) refers (Special) to usenofp.o(x$fpl$usenofp) for __I$use$fp
    fpconst.o(c$$dnan) refers (Special) to usenofp.o(x$fpl$usenofp) for __I$use$fp
    fpconst.o(c$$finf) refers (Special) to usenofp.o(x$fpl$usenofp) for __I$use$fp
    scanf2.o(x$fpl$scanf2) refers to scanf_hexfp.o(.text) for _scanf_really_hex_real
    scanf2.o(x$fpl$scanf2) refers to scanf_infnan.o(.text) for _scanf_really_infnan
    scanf2b.o(x$fpl$scanf2) refers to scanf_hexfp.o(.text) for _scanf_really_hex_real
    scanf2b.o(x$fpl$scanf2) refers to scanf_infnan.o(.text) for _scanf_really_infnan
    narrow.o(i.__mathlib_narrow) refers (Special) to usenofp.o(x$fpl$usenofp) for __I$use$fp
    narrow.o(i.__mathlib_narrow) refers to narrow.o(i.__mathlib_tofloat) for __mathlib_tofloat
    narrow.o(i.__mathlib_tofloat) refers (Special) to usenofp.o(x$fpl$usenofp) for __I$use$fp
    narrow.o(i.__mathlib_tofloat) refers to frexp.o(i.frexp) for frexp
    narrow.o(i.__mathlib_tofloat) refers to deqf.o(x$fpl$deqf) for __aeabi_cdcmpeq
    narrow.o(i.__mathlib_tofloat) refers to d2f.o(x$fpl$d2f) for __aeabi_d2f
    narrow.o(i.__mathlib_tofloat) refers to _rserrno.o(.text) for __set_errno
    narrow.o(i.__mathlib_tofloat) refers to drleqf.o(x$fpl$drleqf) for __aeabi_cdrcmple
    narrow.o(i.__softfp___mathlib_tofloat) refers (Special) to usenofp.o(x$fpl$usenofp) for __I$use$fp
    narrow.o(i.__softfp___mathlib_tofloat) refers to narrow.o(i.__mathlib_tofloat) for __mathlib_tofloat
    rtexit2.o(.ARM.Collect$$rtexit$$00000003) refers to libshutdown.o(.ARM.Collect$$libshutdown$$00000000) for __rt_lib_shutdown
    rtexit2.o(.ARM.Collect$$rtexit$$00000004) refers to sys_exit.o(.text) for _sys_exit
    rtexit2.o(.ARM.exidx) refers to rtexit2.o(.ARM.Collect$$rtexit$$00000001) for .ARM.Collect$$rtexit$$00000001
    rtexit2.o(.ARM.exidx) refers to rtexit2.o(.ARM.Collect$$rtexit$$00000003) for .ARM.Collect$$rtexit$$00000003
    rtexit2.o(.ARM.exidx) refers to rtexit2.o(.ARM.Collect$$rtexit$$00000004) for .ARM.Collect$$rtexit$$00000004
    scanf_hexfp.o(.text) refers to _chval.o(.text) for _chval
    scanf_hexfp.o(.text) refers to llshl.o(.text) for __aeabi_llsl
    scanf_hexfp.o(.text) refers to ldexp.o(i.__support_ldexp) for __support_ldexp
    scanf_hexfp.o(.text) refers to narrow.o(i.__mathlib_narrow) for __mathlib_narrow
    _get_argv_nomalloc.o(.text) refers (Special) to hrguard.o(.text) for __heap_region$guard
    _get_argv_nomalloc.o(.text) refers to defsig_rtmem_outer.o(.text) for __rt_SIGRTMEM
    _get_argv_nomalloc.o(.text) refers to sys_command.o(.text) for _sys_command_string
    deqf.o(x$fpl$deqf) refers (Special) to usenofp.o(x$fpl$usenofp) for __I$use$fp
    deqf.o(x$fpl$deqf) refers to dnaninf.o(x$fpl$dnaninf) for __fpl_dnaninf
    deqf.o(x$fpl$deqf) refers to dcmpi.o(x$fpl$dcmpinf) for __fpl_dcmp_Inf
    drleqf.o(x$fpl$drleqf) refers (Special) to usenofp.o(x$fpl$usenofp) for __I$use$fp
    drleqf.o(x$fpl$drleqf) refers to dleqf.o(x$fpl$dleqf) for __fpl_dcmple_InfNaN
    frexp.o(i.__softfp_frexp) refers (Special) to usenofp.o(x$fpl$usenofp) for __I$use$fp
    frexp.o(i.__softfp_frexp) refers to scalbn.o(x$fpl$scalbn) for __ARM_scalbn
    frexp.o(i.frexp) refers (Special) to usenofp.o(x$fpl$usenofp) for __I$use$fp
    frexp.o(i.frexp) refers to scalbn.o(x$fpl$scalbn) for __ARM_scalbn
    sys_command.o(.text) refers (Special) to use_no_semi.o(.text) for __I$use$semihosting
    sys_command.o(.text) refers (Special) to indicate_semi.o(.text) for __semihosting_library_function
    sys_exit.o(.text) refers (Special) to use_no_semi.o(.text) for __I$use$semihosting
    sys_exit.o(.text) refers (Special) to indicate_semi.o(.text) for __semihosting_library_function
    defsig_rtmem_outer.o(.text) refers to defsig_rtmem_inner.o(.text) for __rt_SIGRTMEM_inner
    defsig_rtmem_outer.o(.text) refers to defsig_exit.o(.text) for __sig_exit
    defsig_rtmem_formal.o(.text) refers to rt_raise.o(.text) for __rt_raise
    libshutdown.o(.ARM.Collect$$libshutdown$$00000000) refers (Special) to libshutdown2.o(.ARM.Collect$$libshutdown$$00000002) for __rt_lib_shutdown_cpp_1
    libshutdown.o(.ARM.Collect$$libshutdown$$00000000) refers (Special) to libshutdown2.o(.ARM.Collect$$libshutdown$$00000007) for __rt_lib_shutdown_fp_trap_1
    libshutdown.o(.ARM.Collect$$libshutdown$$00000000) refers (Special) to libshutdown2.o(.ARM.Collect$$libshutdown$$0000000F) for __rt_lib_shutdown_heap_1
    libshutdown.o(.ARM.Collect$$libshutdown$$00000000) refers (Special) to libshutdown2.o(.ARM.Collect$$libshutdown$$00000010) for __rt_lib_shutdown_return
    libshutdown.o(.ARM.Collect$$libshutdown$$00000000) refers (Special) to libshutdown2.o(.ARM.Collect$$libshutdown$$0000000A) for __rt_lib_shutdown_signal_1
    libshutdown.o(.ARM.Collect$$libshutdown$$00000000) refers (Special) to libshutdown2.o(.ARM.Collect$$libshutdown$$00000004) for __rt_lib_shutdown_stdio_1
    libshutdown.o(.ARM.Collect$$libshutdown$$00000000) refers (Special) to libshutdown2.o(.ARM.Collect$$libshutdown$$0000000C) for __rt_lib_shutdown_user_alloc_1
    dcmpi.o(x$fpl$dcmpinf) refers (Special) to usenofp.o(x$fpl$usenofp) for __I$use$fp
    dleqf.o(x$fpl$dleqf) refers (Special) to usenofp.o(x$fpl$usenofp) for __I$use$fp
    dleqf.o(x$fpl$dleqf) refers to dnaninf.o(x$fpl$dnaninf) for __fpl_dnaninf
    dleqf.o(x$fpl$dleqf) refers to dcmpi.o(x$fpl$dcmpinf) for __fpl_dcmp_Inf
    scalbn.o(x$fpl$scalbn) refers (Special) to usenofp.o(x$fpl$usenofp) for __I$use$fp
    scalbn.o(x$fpl$scalbn) refers to dcheck1.o(x$fpl$dcheck1) for __fpl_dcheck_NaN1
    ldexp.o(i.__softfp_ldexp) refers (Special) to usenofp.o(x$fpl$usenofp) for __I$use$fp
    ldexp.o(i.__softfp_ldexp) refers to ldexp.o(i.ldexp) for ldexp
    ldexp.o(i.__support_ldexp) refers (Special) to usenofp.o(x$fpl$usenofp) for __I$use$fp
    ldexp.o(i.__support_ldexp) refers to ldexp.o(i.ldexp) for ldexp
    ldexp.o(i.ldexp) refers (Special) to usenofp.o(x$fpl$usenofp) for __I$use$fp
    ldexp.o(i.ldexp) refers to deqf.o(x$fpl$deqf) for __aeabi_cdcmpeq
    ldexp.o(i.ldexp) refers to scalbn.o(x$fpl$scalbn) for __ARM_scalbn
    ldexp.o(i.ldexp) refers to _rserrno.o(.text) for __set_errno
    ldexp.o(i.ldexp) refers to dunder.o(i.__mathlib_dbl_underflow) for __mathlib_dbl_underflow
    ldexp.o(i.ldexp) refers to dunder.o(i.__mathlib_dbl_overflow) for __mathlib_dbl_overflow
    ldexp_x.o(i.____softfp_ldexp$lsc) refers (Special) to usenofp.o(x$fpl$usenofp) for __I$use$fp
    ldexp_x.o(i.____softfp_ldexp$lsc) refers to ldexp_x.o(i.__ldexp$lsc) for __ldexp$lsc
    ldexp_x.o(i.____support_ldexp$lsc) refers (Special) to usenofp.o(x$fpl$usenofp) for __I$use$fp
    ldexp_x.o(i.____support_ldexp$lsc) refers to ldexp_x.o(i.__ldexp$lsc) for __ldexp$lsc
    ldexp_x.o(i.__ldexp$lsc) refers (Special) to usenofp.o(x$fpl$usenofp) for __I$use$fp
    ldexp_x.o(i.__ldexp$lsc) refers to deqf.o(x$fpl$deqf) for __aeabi_cdcmpeq
    ldexp_x.o(i.__ldexp$lsc) refers to scalbn.o(x$fpl$scalbn) for __ARM_scalbn
    ldexp_x.o(i.__ldexp$lsc) refers to _rserrno.o(.text) for __set_errno
    ldexp_x.o(i.__ldexp$lsc) refers to qnan.o(.constdata) for __mathlib_zero
    rt_raise.o(.text) refers to __raise.o(.text) for __raise
    rt_raise.o(.text) refers to sys_exit.o(.text) for _sys_exit
    defsig_exit.o(.text) refers to sys_exit.o(.text) for _sys_exit
    defsig_rtmem_inner.o(.text) refers to defsig_general.o(.text) for __default_signal_display
    dcheck1.o(x$fpl$dcheck1) refers (Special) to usenofp.o(x$fpl$usenofp) for __I$use$fp
    dcheck1.o(x$fpl$dcheck1) refers to retnan.o(x$fpl$retnan) for __fpl_return_NaN
    dunder.o(i.__mathlib_dbl_divzero) refers to ddiv.o(x$fpl$ddiv) for __aeabi_ddiv
    dunder.o(i.__mathlib_dbl_infnan) refers to scalbn.o(x$fpl$scalbn) for __ARM_scalbn
    dunder.o(i.__mathlib_dbl_infnan2) refers to daddsub_clz.o(x$fpl$dadd) for __aeabi_dadd
    dunder.o(i.__mathlib_dbl_invalid) refers to ddiv.o(x$fpl$ddiv) for __aeabi_ddiv
    dunder.o(i.__mathlib_dbl_overflow) refers to scalbn.o(x$fpl$scalbn) for __ARM_scalbn
    dunder.o(i.__mathlib_dbl_posinfnan) refers to dmul.o(x$fpl$dmul) for __aeabi_dmul
    dunder.o(i.__mathlib_dbl_underflow) refers to scalbn.o(x$fpl$scalbn) for __ARM_scalbn
    qnan.o(.constdata) refers (Special) to usenofp.o(x$fpl$usenofp) for __I$use$fp
    __raise.o(.text) refers to defsig.o(CL$$defsig) for __default_signal_handler
    defsig_general.o(.text) refers to sys_wrch.o(.text) for _ttywrch
    daddsub_clz.o(x$fpl$dadd) refers (Special) to usenofp.o(x$fpl$usenofp) for __I$use$fp
    daddsub_clz.o(x$fpl$dadd) refers to daddsub_clz.o(x$fpl$dsub) for _dsub1
    daddsub_clz.o(x$fpl$dadd) refers to dretinf.o(x$fpl$dretinf) for __fpl_dretinf
    daddsub_clz.o(x$fpl$dadd) refers to dnaninf.o(x$fpl$dnaninf) for __fpl_dnaninf
    daddsub_clz.o(x$fpl$drsb) refers (Special) to usenofp.o(x$fpl$usenofp) for __I$use$fp
    daddsub_clz.o(x$fpl$drsb) refers to daddsub_clz.o(x$fpl$dadd) for _dadd1
    daddsub_clz.o(x$fpl$drsb) refers to daddsub_clz.o(x$fpl$dsub) for _dsub1
    daddsub_clz.o(x$fpl$dsub) refers (Special) to usenofp.o(x$fpl$usenofp) for __I$use$fp
    daddsub_clz.o(x$fpl$dsub) refers to daddsub_clz.o(x$fpl$dadd) for _dadd1
    daddsub_clz.o(x$fpl$dsub) refers to dnaninf.o(x$fpl$dnaninf) for __fpl_dnaninf
    ddiv.o(x$fpl$drdiv) refers (Special) to usenofp.o(x$fpl$usenofp) for __I$use$fp
    ddiv.o(x$fpl$drdiv) refers to ddiv.o(x$fpl$ddiv) for ddiv_entry
    ddiv.o(x$fpl$ddiv) refers (Special) to usenofp.o(x$fpl$usenofp) for __I$use$fp
    ddiv.o(x$fpl$ddiv) refers to dretinf.o(x$fpl$dretinf) for __fpl_dretinf
    ddiv.o(x$fpl$ddiv) refers to dnaninf.o(x$fpl$dnaninf) for __fpl_dnaninf
    retnan.o(x$fpl$retnan) refers (Special) to usenofp.o(x$fpl$usenofp) for __I$use$fp
    retnan.o(x$fpl$retnan) refers to trapv.o(x$fpl$trapveneer) for __fpl_cmpreturn
    sys_wrch.o(.text) refers (Special) to use_no_semi.o(.text) for __I$use$semihosting
    sys_wrch.o(.text) refers (Special) to indicate_semi.o(.text) for __semihosting_library_function
    defsig.o(CL$$defsig) refers to defsig_rtmem_inner.o(.text) for __rt_SIGRTMEM_inner
    trapv.o(x$fpl$trapveneer) refers (Special) to usenofp.o(x$fpl$usenofp) for __I$use$fp
    defsig_abrt_inner.o(.text) refers to defsig_general.o(.text) for __default_signal_display
    defsig_fpe_inner.o(.text) refers to defsig_general.o(.text) for __default_signal_display
    defsig_rtred_inner.o(.text) refers to defsig_general.o(.text) for __default_signal_display
    defsig_stak_inner.o(.text) refers to defsig_general.o(.text) for __default_signal_display
    defsig_pvfn_inner.o(.text) refers to defsig_general.o(.text) for __default_signal_display
    defsig_cppl_inner.o(.text) refers to defsig_general.o(.text) for __default_signal_display
    defsig_segv_inner.o(.text) refers to defsig_general.o(.text) for __default_signal_display
    defsig_other.o(.text) refers to defsig_general.o(.text) for __default_signal_display


==============================================================================

Removing Unused input sections from the image.

    Removing led.o(.rev16_text), (4 bytes).
    Removing led.o(.revsh_text), (4 bytes).
    Removing led.o(.rrx_text), (6 bytes).
    Removing main.o(.rev16_text), (4 bytes).
    Removing main.o(.revsh_text), (4 bytes).
    Removing main.o(.rrx_text), (6 bytes).
    Removing buzz.o(.rev16_text), (4 bytes).
    Removing buzz.o(.revsh_text), (4 bytes).
    Removing buzz.o(.rrx_text), (6 bytes).
    Removing debug.o(.rev16_text), (4 bytes).
    Removing debug.o(.revsh_text), (4 bytes).
    Removing debug.o(.rrx_text), (6 bytes).
    Removing utilities.o(.rev16_text), (4 bytes).
    Removing utilities.o(.revsh_text), (4 bytes).
    Removing utilities.o(.rrx_text), (6 bytes).
    Removing utilities.o(.bss), (200 bytes).
    Removing interrupt.o(.rev16_text), (4 bytes).
    Removing interrupt.o(.revsh_text), (4 bytes).
    Removing interrupt.o(.rrx_text), (6 bytes).
    Removing cauhinh.o(.rev16_text), (4 bytes).
    Removing cauhinh.o(.revsh_text), (4 bytes).
    Removing cauhinh.o(.rrx_text), (6 bytes).
    Removing initsystem.o(.rev16_text), (4 bytes).
    Removing initsystem.o(.revsh_text), (4 bytes).
    Removing initsystem.o(.rrx_text), (6 bytes).
    Removing watchdog.o(.rev16_text), (4 bytes).
    Removing watchdog.o(.revsh_text), (4 bytes).
    Removing watchdog.o(.rrx_text), (6 bytes).
    Removing tatdongco.o(.rev16_text), (4 bytes).
    Removing tatdongco.o(.revsh_text), (4 bytes).
    Removing tatdongco.o(.rrx_text), (6 bytes).
    Removing measurement.o(.rev16_text), (4 bytes).
    Removing measurement.o(.revsh_text), (4 bytes).
    Removing measurement.o(.rrx_text), (6 bytes).
    Removing configuration.o(.rev16_text), (4 bytes).
    Removing configuration.o(.revsh_text), (4 bytes).
    Removing configuration.o(.rrx_text), (6 bytes).
    Removing olddataprocess.o(.rev16_text), (4 bytes).
    Removing olddataprocess.o(.revsh_text), (4 bytes).
    Removing olddataprocess.o(.rrx_text), (6 bytes).
    Removing hardwaremanager.o(.rev16_text), (4 bytes).
    Removing hardwaremanager.o(.revsh_text), (4 bytes).
    Removing hardwaremanager.o(.rrx_text), (6 bytes).
    Removing flash_if.o(.rev16_text), (4 bytes).
    Removing flash_if.o(.revsh_text), (4 bytes).
    Removing flash_if.o(.rrx_text), (6 bytes).
    Removing updatefimware.o(.rev16_text), (4 bytes).
    Removing updatefimware.o(.revsh_text), (4 bytes).
    Removing updatefimware.o(.rrx_text), (6 bytes).
    Removing bgt_data.o(.rev16_text), (4 bytes).
    Removing bgt_data.o(.revsh_text), (4 bytes).
    Removing bgt_data.o(.rrx_text), (6 bytes).
    Removing bgt_rfid.o(.rev16_text), (4 bytes).
    Removing bgt_rfid.o(.revsh_text), (4 bytes).
    Removing bgt_rfid.o(.rrx_text), (6 bytes).
    Removing bgt_laixe.o(.rev16_text), (4 bytes).
    Removing bgt_laixe.o(.revsh_text), (4 bytes).
    Removing bgt_laixe.o(.rrx_text), (6 bytes).
    Removing bgt_alarm.o(.rev16_text), (4 bytes).
    Removing bgt_alarm.o(.revsh_text), (4 bytes).
    Removing bgt_alarm.o(.rrx_text), (6 bytes).
    Removing bgt_process.o(.rev16_text), (4 bytes).
    Removing bgt_process.o(.revsh_text), (4 bytes).
    Removing bgt_process.o(.rrx_text), (6 bytes).
    Removing bgt_command.o(.rev16_text), (4 bytes).
    Removing bgt_command.o(.revsh_text), (4 bytes).
    Removing bgt_command.o(.rrx_text), (6 bytes).
    Removing hp2010.o(.rev16_text), (4 bytes).
    Removing hp2010.o(.revsh_text), (4 bytes).
    Removing hp2010.o(.rrx_text), (6 bytes).
    Removing gps_process.o(.rev16_text), (4 bytes).
    Removing gps_process.o(.revsh_text), (4 bytes).
    Removing gps_process.o(.rrx_text), (6 bytes).
    Removing gps_hardware.o(.rev16_text), (4 bytes).
    Removing gps_hardware.o(.revsh_text), (4 bytes).
    Removing gps_hardware.o(.rrx_text), (6 bytes).
    Removing gsm_m95.o(.rev16_text), (4 bytes).
    Removing gsm_m95.o(.revsh_text), (4 bytes).
    Removing gsm_m95.o(.rrx_text), (6 bytes).
    Removing gsm_sms.o(.rev16_text), (4 bytes).
    Removing gsm_sms.o(.revsh_text), (4 bytes).
    Removing gsm_sms.o(.rrx_text), (6 bytes).
    Removing gsm_gprs.o(.rev16_text), (4 bytes).
    Removing gsm_gprs.o(.revsh_text), (4 bytes).
    Removing gsm_gprs.o(.rrx_text), (6 bytes).
    Removing gsm_process.o(.rev16_text), (4 bytes).
    Removing gsm_process.o(.revsh_text), (4 bytes).
    Removing gsm_process.o(.rrx_text), (6 bytes).
    Removing gsm_message.o(.rev16_text), (4 bytes).
    Removing gsm_message.o(.revsh_text), (4 bytes).
    Removing gsm_message.o(.rrx_text), (6 bytes).
    Removing gsm_hardware.o(.rev16_text), (4 bytes).
    Removing gsm_hardware.o(.revsh_text), (4 bytes).
    Removing gsm_hardware.o(.rrx_text), (6 bytes).
    Removing gsm_serverprocess.o(.rev16_text), (4 bytes).
    Removing gsm_serverprocess.o(.revsh_text), (4 bytes).
    Removing gsm_serverprocess.o(.rrx_text), (6 bytes).
    Removing rtc.o(.rev16_text), (4 bytes).
    Removing rtc.o(.revsh_text), (4 bytes).
    Removing rtc.o(.rrx_text), (6 bytes).
    Removing fram.o(.rev16_text), (4 bytes).
    Removing fram.o(.revsh_text), (4 bytes).
    Removing fram.o(.rrx_text), (6 bytes).
    Removing dataflash.o(.rev16_text), (4 bytes).
    Removing dataflash.o(.revsh_text), (4 bytes).
    Removing dataflash.o(.rrx_text), (6 bytes).
    Removing dataflash.o(.bss), (1024 bytes).
    Removing des.o(.rev16_text), (4 bytes).
    Removing des.o(.revsh_text), (4 bytes).
    Removing des.o(.rrx_text), (6 bytes).
    Removing base64.o(.rev16_text), (4 bytes).
    Removing base64.o(.revsh_text), (4 bytes).
    Removing base64.o(.rrx_text), (6 bytes).
    Removing mahoa.o(.rev16_text), (4 bytes).
    Removing mahoa.o(.revsh_text), (4 bytes).
    Removing mahoa.o(.rrx_text), (6 bytes).
    Removing amthanh.o(.rev16_text), (4 bytes).
    Removing amthanh.o(.revsh_text), (4 bytes).
    Removing amthanh.o(.rrx_text), (6 bytes).
    Removing nhienlieu.o(.rev16_text), (4 bytes).
    Removing nhienlieu.o(.revsh_text), (4 bytes).
    Removing nhienlieu.o(.rrx_text), (6 bytes).
    Removing misc.o(.rev16_text), (4 bytes).
    Removing misc.o(.revsh_text), (4 bytes).
    Removing misc.o(.rrx_text), (6 bytes).
    Removing stm32f2xx_adc.o(.rev16_text), (4 bytes).
    Removing stm32f2xx_adc.o(.revsh_text), (4 bytes).
    Removing stm32f2xx_adc.o(.rrx_text), (6 bytes).
    Removing stm32f2xx_dma.o(.rev16_text), (4 bytes).
    Removing stm32f2xx_dma.o(.revsh_text), (4 bytes).
    Removing stm32f2xx_dma.o(.rrx_text), (6 bytes).
    Removing stm32f2xx_exti.o(.rev16_text), (4 bytes).
    Removing stm32f2xx_exti.o(.revsh_text), (4 bytes).
    Removing stm32f2xx_exti.o(.rrx_text), (6 bytes).
    Removing stm32f2xx_flash.o(.rev16_text), (4 bytes).
    Removing stm32f2xx_flash.o(.revsh_text), (4 bytes).
    Removing stm32f2xx_flash.o(.rrx_text), (6 bytes).
    Removing stm32f2xx_gpio.o(.rev16_text), (4 bytes).
    Removing stm32f2xx_gpio.o(.revsh_text), (4 bytes).
    Removing stm32f2xx_gpio.o(.rrx_text), (6 bytes).
    Removing stm32f2xx_iwdg.o(.rev16_text), (4 bytes).
    Removing stm32f2xx_iwdg.o(.revsh_text), (4 bytes).
    Removing stm32f2xx_iwdg.o(.rrx_text), (6 bytes).
    Removing stm32f2xx_pwr.o(.rev16_text), (4 bytes).
    Removing stm32f2xx_pwr.o(.revsh_text), (4 bytes).
    Removing stm32f2xx_pwr.o(.rrx_text), (6 bytes).
    Removing stm32f2xx_rcc.o(.rev16_text), (4 bytes).
    Removing stm32f2xx_rcc.o(.revsh_text), (4 bytes).
    Removing stm32f2xx_rcc.o(.rrx_text), (6 bytes).
    Removing stm32f2xx_rtc.o(.rev16_text), (4 bytes).
    Removing stm32f2xx_rtc.o(.revsh_text), (4 bytes).
    Removing stm32f2xx_rtc.o(.rrx_text), (6 bytes).
    Removing stm32f2xx_spi.o(.rev16_text), (4 bytes).
    Removing stm32f2xx_spi.o(.revsh_text), (4 bytes).
    Removing stm32f2xx_spi.o(.rrx_text), (6 bytes).
    Removing stm32f2xx_syscfg.o(.rev16_text), (4 bytes).
    Removing stm32f2xx_syscfg.o(.revsh_text), (4 bytes).
    Removing stm32f2xx_syscfg.o(.rrx_text), (6 bytes).
    Removing stm32f2xx_tim.o(.rev16_text), (4 bytes).
    Removing stm32f2xx_tim.o(.revsh_text), (4 bytes).
    Removing stm32f2xx_tim.o(.rrx_text), (6 bytes).
    Removing stm32f2xx_usart.o(.rev16_text), (4 bytes).
    Removing stm32f2xx_usart.o(.revsh_text), (4 bytes).
    Removing stm32f2xx_usart.o(.rrx_text), (6 bytes).
    Removing system_stm32f2xx.o(.rev16_text), (4 bytes).
    Removing system_stm32f2xx.o(.revsh_text), (4 bytes).
    Removing system_stm32f2xx.o(.rrx_text), (6 bytes).

167 unused section(s) (total 1994 bytes) removed from the image.

==============================================================================

Image Symbol Table

    Local Symbols

    Symbol Name                              Value     Ov Type        Size  Object(Section)

    ../clib/angel/boardlib.s                 0x00000000   Number         0  boardshut.o ABSOLUTE
    ../clib/angel/boardlib.s                 0x00000000   Number         0  boardinit3.o ABSOLUTE
    ../clib/angel/boardlib.s                 0x00000000   Number         0  boardinit1.o ABSOLUTE
    ../clib/angel/boardlib.s                 0x00000000   Number         0  boardinit2.o ABSOLUTE
    ../clib/angel/dczerorl2.s                0x00000000   Number         0  __dczerorl2.o ABSOLUTE
    ../clib/angel/handlers.s                 0x00000000   Number         0  __scatter_zi.o ABSOLUTE
    ../clib/angel/kernel.s                   0x00000000   Number         0  rtexit.o ABSOLUTE
    ../clib/angel/kernel.s                   0x00000000   Number         0  __rtentry4.o ABSOLUTE
    ../clib/angel/kernel.s                   0x00000000   Number         0  rtexit2.o ABSOLUTE
    ../clib/angel/kernel.s                   0x00000000   Number         0  __rtentry.o ABSOLUTE
    ../clib/angel/kernel.s                   0x00000000   Number         0  __rtentry2.o ABSOLUTE
    ../clib/angel/rt.s                       0x00000000   Number         0  rt_errno_addr_intlibspace.o ABSOLUTE
    ../clib/angel/rt.s                       0x00000000   Number         0  rt_errno_addr.o ABSOLUTE
    ../clib/angel/rt.s                       0x00000000   Number         0  rt_locale.o ABSOLUTE
    ../clib/angel/rt.s                       0x00000000   Number         0  rt_ctype_table.o ABSOLUTE
    ../clib/angel/rt.s                       0x00000000   Number         0  rt_raise.o ABSOLUTE
    ../clib/angel/rt.s                       0x00000000   Number         0  rt_locale_intlibspace.o ABSOLUTE
    ../clib/angel/scatter.s                  0x00000000   Number         0  __scatter.o ABSOLUTE
    ../clib/angel/startup.s                  0x00000000   Number         0  __main.o ABSOLUTE
    ../clib/angel/sys.s                      0x00000000   Number         0  use_no_semi.o ABSOLUTE
    ../clib/angel/sys.s                      0x00000000   Number         0  indicate_semi.o ABSOLUTE
    ../clib/angel/sys.s                      0x00000000   Number         0  libspace.o ABSOLUTE
    ../clib/angel/sys.s                      0x00000000   Number         0  sys_stackheap_outer.o ABSOLUTE
    ../clib/angel/sysapp.c                   0x00000000   Number         0  sys_exit.o ABSOLUTE
    ../clib/angel/sysapp.c                   0x00000000   Number         0  sys_wrch.o ABSOLUTE
    ../clib/angel/sysapp.c                   0x00000000   Number         0  sys_command.o ABSOLUTE
    ../clib/armsys.c                         0x00000000   Number         0  argv_veneer.o ABSOLUTE
    ../clib/armsys.c                         0x00000000   Number         0  _get_argv_nomalloc.o ABSOLUTE
    ../clib/armsys.c                         0x00000000   Number         0  no_argv.o ABSOLUTE
    ../clib/armsys.c                         0x00000000   Number         0  argv_veneer.o ABSOLUTE
    ../clib/bigflt.c                         0x00000000   Number         0  bigflt0.o ABSOLUTE
    ../clib/btod.s                           0x00000000   Number         0  btod.o ABSOLUTE
    ../clib/ctype.c                          0x00000000   Number         0  isspace.o ABSOLUTE
    ../clib/fenv.c                           0x00000000   Number         0  _rserrno.o ABSOLUTE
    ../clib/heapalloc.c                      0x00000000   Number         0  hrguard.o ABSOLUTE
    ../clib/heapaux.c                        0x00000000   Number         0  heapauxi.o ABSOLUTE
    ../clib/libinit.s                        0x00000000   Number         0  libshutdown2.o ABSOLUTE
    ../clib/libinit.s                        0x00000000   Number         0  libinit.o ABSOLUTE
    ../clib/libinit.s                        0x00000000   Number         0  libinit2.o ABSOLUTE
    ../clib/libinit.s                        0x00000000   Number         0  libshutdown.o ABSOLUTE
    ../clib/locale.s                         0x00000000   Number         0  lc_ctype_c.o ABSOLUTE
    ../clib/locale.s                         0x00000000   Number         0  lc_numeric_c.o ABSOLUTE
    ../clib/longlong.s                       0x00000000   Number         0  llshl.o ABSOLUTE
    ../clib/longlong.s                       0x00000000   Number         0  lludiv10.o ABSOLUTE
    ../clib/memcpset.s                       0x00000000   Number         0  rt_memcpy_w.o ABSOLUTE
    ../clib/memcpset.s                       0x00000000   Number         0  rt_memcpy_v6.o ABSOLUTE
    ../clib/memcpset.s                       0x00000000   Number         0  strcmpv7m.o ABSOLUTE
    ../clib/memcpset.s                       0x00000000   Number         0  rt_memclr_w.o ABSOLUTE
    ../clib/misc.s                           0x00000000   Number         0  printf_stubs.o ABSOLUTE
    ../clib/printf.c                         0x00000000   Number         0  __2sprintf.o ABSOLUTE
    ../clib/printf.c                         0x00000000   Number         0  noretval__2sprintf.o ABSOLUTE
    ../clib/printf.c                         0x00000000   Number         0  __printf.o ABSOLUTE
    ../clib/printf.c                         0x00000000   Number         0  _printf_pad.o ABSOLUTE
    ../clib/printf.c                         0x00000000   Number         0  _printf_str.o ABSOLUTE
    ../clib/printf.c                         0x00000000   Number         0  _printf_dec.o ABSOLUTE
    ../clib/printf.c                         0x00000000   Number         0  __printf_flags.o ABSOLUTE
    ../clib/printf.c                         0x00000000   Number         0  __printf_ss.o ABSOLUTE
    ../clib/printf.c                         0x00000000   Number         0  __printf_flags_ss.o ABSOLUTE
    ../clib/printf.c                         0x00000000   Number         0  _printf_char_common.o ABSOLUTE
    ../clib/printf.c                         0x00000000   Number         0  __printf_wp.o ABSOLUTE
    ../clib/printf.c                         0x00000000   Number         0  __printf_flags_wp.o ABSOLUTE
    ../clib/printf.c                         0x00000000   Number         0  _printf_intcommon.o ABSOLUTE
    ../clib/printf.c                         0x00000000   Number         0  __printf_ss_wp.o ABSOLUTE
    ../clib/printf.c                         0x00000000   Number         0  _printf_fp_dec.o ABSOLUTE
    ../clib/printf.c                         0x00000000   Number         0  __printf_nopercent.o ABSOLUTE
    ../clib/printf.c                         0x00000000   Number         0  _printf_fp_infnan.o ABSOLUTE
    ../clib/printf.c                         0x00000000   Number         0  __printf_flags_ss_wp.o ABSOLUTE
    ../clib/printf.c                         0x00000000   Number         0  _printf_char.o ABSOLUTE
    ../clib/printf.c                         0x00000000   Number         0  _sputc.o ABSOLUTE
    ../clib/printf_percent.s                 0x00000000   Number         0  _printf_percent.o ABSOLUTE
    ../clib/printf_percent.s                 0x00000000   Number         0  _printf_f.o ABSOLUTE
    ../clib/printf_percent.s                 0x00000000   Number         0  _printf_u.o ABSOLUTE
    ../clib/printf_percent.s                 0x00000000   Number         0  _printf_d.o ABSOLUTE
    ../clib/printf_percent.s                 0x00000000   Number         0  _printf_s.o ABSOLUTE
    ../clib/printf_percent.s                 0x00000000   Number         0  _printf_percent_end.o ABSOLUTE
    ../clib/scanf.c                          0x00000000   Number         0  scanf_hexfp.o ABSOLUTE
    ../clib/scanf.c                          0x00000000   Number         0  _sgetc.o ABSOLUTE
    ../clib/scanf.c                          0x00000000   Number         0  _strtoul.o ABSOLUTE
    ../clib/scanf.c                          0x00000000   Number         0  scanf_infnan.o ABSOLUTE
    ../clib/scanf.c                          0x00000000   Number         0  _chval.o ABSOLUTE
    ../clib/scanf.c                          0x00000000   Number         0  scanf_fp.o ABSOLUTE
    ../clib/scanf.c                          0x00000000   Number         0  atoi.o ABSOLUTE
    ../clib/scanf.c                          0x00000000   Number         0  strtod.o ABSOLUTE
    ../clib/scanf.c                          0x00000000   Number         0  strtol.o ABSOLUTE
    ../clib/signal.c                         0x00000000   Number         0  defsig_pvfn_inner.o ABSOLUTE
    ../clib/signal.c                         0x00000000   Number         0  defsig_segv_inner.o ABSOLUTE
    ../clib/signal.c                         0x00000000   Number         0  defsig_other.o ABSOLUTE
    ../clib/signal.c                         0x00000000   Number         0  defsig_exit.o ABSOLUTE
    ../clib/signal.c                         0x00000000   Number         0  __raise.o ABSOLUTE
    ../clib/signal.c                         0x00000000   Number         0  defsig_cppl_inner.o ABSOLUTE
    ../clib/signal.c                         0x00000000   Number         0  defsig_rtmem_formal.o ABSOLUTE
    ../clib/signal.c                         0x00000000   Number         0  defsig_rtmem_outer.o ABSOLUTE
    ../clib/signal.c                         0x00000000   Number         0  defsig_rtmem_inner.o ABSOLUTE
    ../clib/signal.c                         0x00000000   Number         0  defsig_general.o ABSOLUTE
    ../clib/signal.c                         0x00000000   Number         0  defsig_abrt_inner.o ABSOLUTE
    ../clib/signal.c                         0x00000000   Number         0  defsig_fpe_inner.o ABSOLUTE
    ../clib/signal.c                         0x00000000   Number         0  defsig_rtred_inner.o ABSOLUTE
    ../clib/signal.c                         0x00000000   Number         0  defsig_stak_inner.o ABSOLUTE
    ../clib/signal.s                         0x00000000   Number         0  defsig.o ABSOLUTE
    ../clib/stdlib.c                         0x00000000   Number         0  exit.o ABSOLUTE
    ../clib/string.c                         0x00000000   Number         0  strtok_int.o ABSOLUTE
    ../clib/string.c                         0x00000000   Number         0  strstr.o ABSOLUTE
    ../clib/string.c                         0x00000000   Number         0  strlen.o ABSOLUTE
    ../clib/string.c                         0x00000000   Number         0  strcat.o ABSOLUTE
    ../clib/string.c                         0x00000000   Number         0  strcpy.o ABSOLUTE
    ../clib/string.c                         0x00000000   Number         0  strtok.o ABSOLUTE
    ../clib/string.c                         0x00000000   Number         0  strcspn.o ABSOLUTE
    ../clib/string.c                         0x00000000   Number         0  strspn.o ABSOLUTE
    ../clib/time.c                           0x00000000   Number         0  _monlen.o ABSOLUTE
    ../clib/time.c                           0x00000000   Number         0  localtime_internal.o ABSOLUTE
    ../clib/time.c                           0x00000000   Number         0  mktime.o ABSOLUTE
    ../clib/time.c                           0x00000000   Number         0  localtime.o ABSOLUTE
    ../fplib/d2f.s                           0x00000000   Number         0  d2f.o ABSOLUTE
    ../fplib/daddsub.s                       0x00000000   Number         0  daddsub_clz.o ABSOLUTE
    ../fplib/dcheck1.s                       0x00000000   Number         0  dcheck1.o ABSOLUTE
    ../fplib/dcmpi.s                         0x00000000   Number         0  dcmpi.o ABSOLUTE
    ../fplib/ddiv.s                          0x00000000   Number         0  ddiv.o ABSOLUTE
    ../fplib/deqf.s                          0x00000000   Number         0  deqf.o ABSOLUTE
    ../fplib/dfixu.s                         0x00000000   Number         0  dfixu.o ABSOLUTE
    ../fplib/dflt.s                          0x00000000   Number         0  dflt_clz.o ABSOLUTE
    ../fplib/dleqf.s                         0x00000000   Number         0  dleqf.o ABSOLUTE
    ../fplib/dmul.s                          0x00000000   Number         0  dmul.o ABSOLUTE
    ../fplib/dnaninf.s                       0x00000000   Number         0  dnaninf.o ABSOLUTE
    ../fplib/dretinf.s                       0x00000000   Number         0  dretinf.o ABSOLUTE
    ../fplib/drleqf.s                        0x00000000   Number         0  drleqf.o ABSOLUTE
    ../fplib/f2d.s                           0x00000000   Number         0  f2d.o ABSOLUTE
    ../fplib/faddsub.s                       0x00000000   Number         0  faddsub_clz.o ABSOLUTE
    ../fplib/fdiv.s                          0x00000000   Number         0  fdiv.o ABSOLUTE
    ../fplib/ffixu.s                         0x00000000   Number         0  ffixu.o ABSOLUTE
    ../fplib/fflt.s                          0x00000000   Number         0  fflt_clz.o ABSOLUTE
    ../fplib/fmul.s                          0x00000000   Number         0  fmul.o ABSOLUTE
    ../fplib/fnaninf.s                       0x00000000   Number         0  fnaninf.o ABSOLUTE
    ../fplib/fpconst.s                       0x00000000   Number         0  fpconst.o ABSOLUTE
    ../fplib/fpinit.s                        0x00000000   Number         0  fpinit.o ABSOLUTE
    ../fplib/fretinf.s                       0x00000000   Number         0  fretinf.o ABSOLUTE
    ../fplib/istatus.s                       0x00000000   Number         0  istatus.o ABSOLUTE
    ../fplib/printf1.s                       0x00000000   Number         0  printf1.o ABSOLUTE
    ../fplib/retnan.s                        0x00000000   Number         0  retnan.o ABSOLUTE
    ../fplib/scalbn.s                        0x00000000   Number         0  scalbn.o ABSOLUTE
    ../fplib/scanf1.s                        0x00000000   Number         0  scanf1.o ABSOLUTE
    ../fplib/scanf2.s                        0x00000000   Number         0  scanf2.o ABSOLUTE
    ../fplib/scanf2a.s                       0x00000000   Number         0  scanf2a.o ABSOLUTE
    ../fplib/scanf2b.s                       0x00000000   Number         0  scanf2b.o ABSOLUTE
    ../fplib/trapv.s                         0x00000000   Number         0  trapv.o ABSOLUTE
    ../fplib/usenofp.s                       0x00000000   Number         0  usenofp.o ABSOLUTE
    ../mathlib/atof.c                        0x00000000   Number         0  atof.o ABSOLUTE
    ../mathlib/dunder.c                      0x00000000   Number         0  dunder.o ABSOLUTE
    ../mathlib/fpclassify.c                  0x00000000   Number         0  fpclassify.o ABSOLUTE
    ../mathlib/frexp.c                       0x00000000   Number         0  frexp.o ABSOLUTE
    ../mathlib/ldexp.c                       0x00000000   Number         0  ldexp_x.o ABSOLUTE
    ../mathlib/ldexp.c                       0x00000000   Number         0  ldexp.o ABSOLUTE
    ../mathlib/narrow.c                      0x00000000   Number         0  narrow.o ABSOLUTE
    ../mathlib/qnan.c                        0x00000000   Number         0  qnan.o ABSOLUTE
    C:\Keil_v5\ARM\PACK\Keil\STM32F2xx_DFP\1.0.7\Device\StdPeriph_Driver\src\misc.c 0x00000000   Number         0  misc.o ABSOLUTE
    C:\Keil_v5\ARM\PACK\Keil\STM32F2xx_DFP\1.0.7\Device\StdPeriph_Driver\src\stm32f2xx_adc.c 0x00000000   Number         0  stm32f2xx_adc.o ABSOLUTE
    C:\Keil_v5\ARM\PACK\Keil\STM32F2xx_DFP\1.0.7\Device\StdPeriph_Driver\src\stm32f2xx_dma.c 0x00000000   Number         0  stm32f2xx_dma.o ABSOLUTE
    C:\Keil_v5\ARM\PACK\Keil\STM32F2xx_DFP\1.0.7\Device\StdPeriph_Driver\src\stm32f2xx_exti.c 0x00000000   Number         0  stm32f2xx_exti.o ABSOLUTE
    C:\Keil_v5\ARM\PACK\Keil\STM32F2xx_DFP\1.0.7\Device\StdPeriph_Driver\src\stm32f2xx_flash.c 0x00000000   Number         0  stm32f2xx_flash.o ABSOLUTE
    C:\Keil_v5\ARM\PACK\Keil\STM32F2xx_DFP\1.0.7\Device\StdPeriph_Driver\src\stm32f2xx_gpio.c 0x00000000   Number         0  stm32f2xx_gpio.o ABSOLUTE
    C:\Keil_v5\ARM\PACK\Keil\STM32F2xx_DFP\1.0.7\Device\StdPeriph_Driver\src\stm32f2xx_iwdg.c 0x00000000   Number         0  stm32f2xx_iwdg.o ABSOLUTE
    C:\Keil_v5\ARM\PACK\Keil\STM32F2xx_DFP\1.0.7\Device\StdPeriph_Driver\src\stm32f2xx_pwr.c 0x00000000   Number         0  stm32f2xx_pwr.o ABSOLUTE
    C:\Keil_v5\ARM\PACK\Keil\STM32F2xx_DFP\1.0.7\Device\StdPeriph_Driver\src\stm32f2xx_rcc.c 0x00000000   Number         0  stm32f2xx_rcc.o ABSOLUTE
    C:\Keil_v5\ARM\PACK\Keil\STM32F2xx_DFP\1.0.7\Device\StdPeriph_Driver\src\stm32f2xx_rtc.c 0x00000000   Number         0  stm32f2xx_rtc.o ABSOLUTE
    C:\Keil_v5\ARM\PACK\Keil\STM32F2xx_DFP\1.0.7\Device\StdPeriph_Driver\src\stm32f2xx_spi.c 0x00000000   Number         0  stm32f2xx_spi.o ABSOLUTE
    C:\Keil_v5\ARM\PACK\Keil\STM32F2xx_DFP\1.0.7\Device\StdPeriph_Driver\src\stm32f2xx_syscfg.c 0x00000000   Number         0  stm32f2xx_syscfg.o ABSOLUTE
    C:\Keil_v5\ARM\PACK\Keil\STM32F2xx_DFP\1.0.7\Device\StdPeriph_Driver\src\stm32f2xx_tim.c 0x00000000   Number         0  stm32f2xx_tim.o ABSOLUTE
    C:\Keil_v5\ARM\PACK\Keil\STM32F2xx_DFP\1.0.7\Device\StdPeriph_Driver\src\stm32f2xx_usart.c 0x00000000   Number         0  stm32f2xx_usart.o ABSOLUTE
    C:\\Keil_v5\\ARM\\PACK\\Keil\\STM32F2xx_DFP\\1.0.7\\Device\\StdPeriph_Driver\\src\\misc.c 0x00000000   Number         0  misc.o ABSOLUTE
    C:\\Keil_v5\\ARM\\PACK\\Keil\\STM32F2xx_DFP\\1.0.7\\Device\\StdPeriph_Driver\\src\\stm32f2xx_adc.c 0x00000000   Number         0  stm32f2xx_adc.o ABSOLUTE
    C:\\Keil_v5\\ARM\\PACK\\Keil\\STM32F2xx_DFP\\1.0.7\\Device\\StdPeriph_Driver\\src\\stm32f2xx_dma.c 0x00000000   Number         0  stm32f2xx_dma.o ABSOLUTE
    C:\\Keil_v5\\ARM\\PACK\\Keil\\STM32F2xx_DFP\\1.0.7\\Device\\StdPeriph_Driver\\src\\stm32f2xx_exti.c 0x00000000   Number         0  stm32f2xx_exti.o ABSOLUTE
    C:\\Keil_v5\\ARM\\PACK\\Keil\\STM32F2xx_DFP\\1.0.7\\Device\\StdPeriph_Driver\\src\\stm32f2xx_flash.c 0x00000000   Number         0  stm32f2xx_flash.o ABSOLUTE
    C:\\Keil_v5\\ARM\\PACK\\Keil\\STM32F2xx_DFP\\1.0.7\\Device\\StdPeriph_Driver\\src\\stm32f2xx_gpio.c 0x00000000   Number         0  stm32f2xx_gpio.o ABSOLUTE
    C:\\Keil_v5\\ARM\\PACK\\Keil\\STM32F2xx_DFP\\1.0.7\\Device\\StdPeriph_Driver\\src\\stm32f2xx_iwdg.c 0x00000000   Number         0  stm32f2xx_iwdg.o ABSOLUTE
    C:\\Keil_v5\\ARM\\PACK\\Keil\\STM32F2xx_DFP\\1.0.7\\Device\\StdPeriph_Driver\\src\\stm32f2xx_pwr.c 0x00000000   Number         0  stm32f2xx_pwr.o ABSOLUTE
    C:\\Keil_v5\\ARM\\PACK\\Keil\\STM32F2xx_DFP\\1.0.7\\Device\\StdPeriph_Driver\\src\\stm32f2xx_rcc.c 0x00000000   Number         0  stm32f2xx_rcc.o ABSOLUTE
    C:\\Keil_v5\\ARM\\PACK\\Keil\\STM32F2xx_DFP\\1.0.7\\Device\\StdPeriph_Driver\\src\\stm32f2xx_rtc.c 0x00000000   Number         0  stm32f2xx_rtc.o ABSOLUTE
    C:\\Keil_v5\\ARM\\PACK\\Keil\\STM32F2xx_DFP\\1.0.7\\Device\\StdPeriph_Driver\\src\\stm32f2xx_spi.c 0x00000000   Number         0  stm32f2xx_spi.o ABSOLUTE
    C:\\Keil_v5\\ARM\\PACK\\Keil\\STM32F2xx_DFP\\1.0.7\\Device\\StdPeriph_Driver\\src\\stm32f2xx_syscfg.c 0x00000000   Number         0  stm32f2xx_syscfg.o ABSOLUTE
    C:\\Keil_v5\\ARM\\PACK\\Keil\\STM32F2xx_DFP\\1.0.7\\Device\\StdPeriph_Driver\\src\\stm32f2xx_tim.c 0x00000000   Number         0  stm32f2xx_tim.o ABSOLUTE
    C:\\Keil_v5\\ARM\\PACK\\Keil\\STM32F2xx_DFP\\1.0.7\\Device\\StdPeriph_Driver\\src\\stm32f2xx_usart.c 0x00000000   Number         0  stm32f2xx_usart.o ABSOLUTE
    RTE\Device\STM32F205VE\startup_stm32f2xx.s 0x00000000   Number         0  startup_stm32f2xx.o ABSOLUTE
    RTE\Device\STM32F205VE\system_stm32f2xx.c 0x00000000   Number         0  system_stm32f2xx.o ABSOLUTE
    RTE\\Device\\STM32F205VE\\system_stm32f2xx.c 0x00000000   Number         0  system_stm32f2xx.o ABSOLUTE
    dc.s                                     0x00000000   Number         0  dc.o ABSOLUTE
    src\AmThanh\AmThanh.c                    0x00000000   Number         0  amthanh.o ABSOLUTE
    src\BGT\BGT_Alarm.c                      0x00000000   Number         0  bgt_alarm.o ABSOLUTE
    src\BGT\BGT_Command.c                    0x00000000   Number         0  bgt_command.o ABSOLUTE
    src\BGT\BGT_Data.c                       0x00000000   Number         0  bgt_data.o ABSOLUTE
    src\BGT\BGT_Laixe.c                      0x00000000   Number         0  bgt_laixe.o ABSOLUTE
    src\BGT\BGT_Process.c                    0x00000000   Number         0  bgt_process.o ABSOLUTE
    src\BGT\BGT_RFID.c                       0x00000000   Number         0  bgt_rfid.o ABSOLUTE
    src\Buzz.c                               0x00000000   Number         0  buzz.o ABSOLUTE
    src\CauHinh.c                            0x00000000   Number         0  cauhinh.o ABSOLUTE
    src\Configuration.c                      0x00000000   Number         0  configuration.o ABSOLUTE
    src\DataFlash.c                          0x00000000   Number         0  dataflash.o ABSOLUTE
    src\Debug.c                              0x00000000   Number         0  debug.o ABSOLUTE
    src\GPS\GPS_Hardware.c                   0x00000000   Number         0  gps_hardware.o ABSOLUTE
    src\GPS\GPS_Process.c                    0x00000000   Number         0  gps_process.o ABSOLUTE
    src\GSM\GSM_GPRS.c                       0x00000000   Number         0  gsm_gprs.o ABSOLUTE
    src\GSM\GSM_Hardware.c                   0x00000000   Number         0  gsm_hardware.o ABSOLUTE
    src\GSM\GSM_M95.c                        0x00000000   Number         0  gsm_m95.o ABSOLUTE
    src\GSM\GSM_Message.c                    0x00000000   Number         0  gsm_message.o ABSOLUTE
    src\GSM\GSM_Process.c                    0x00000000   Number         0  gsm_process.o ABSOLUTE
    src\GSM\GSM_SMS.c                        0x00000000   Number         0  gsm_sms.o ABSOLUTE
    src\GSM\GSM_ServerProcess.c              0x00000000   Number         0  gsm_serverprocess.o ABSOLUTE
    src\HardwareManager.c                    0x00000000   Number         0  hardwaremanager.o ABSOLUTE
    src\InitSystem.c                         0x00000000   Number         0  initsystem.o ABSOLUTE
    src\Interrupt.c                          0x00000000   Number         0  interrupt.o ABSOLUTE
    src\Led.c                                0x00000000   Number         0  led.o ABSOLUTE
    src\MaHoa\Base64.c                       0x00000000   Number         0  base64.o ABSOLUTE
    src\MaHoa\DES.c                          0x00000000   Number         0  des.o ABSOLUTE
    src\MaHoa\MaHoa.c                        0x00000000   Number         0  mahoa.o ABSOLUTE
    src\Measurement.c                        0x00000000   Number         0  measurement.o ABSOLUTE
    src\Memories\FRAM.c                      0x00000000   Number         0  fram.o ABSOLUTE
    src\NhienLieu.c                          0x00000000   Number         0  nhienlieu.o ABSOLUTE
    src\OldDataProcess.c                     0x00000000   Number         0  olddataprocess.o ABSOLUTE
    src\RTC.c                                0x00000000   Number         0  rtc.o ABSOLUTE
    src\TatDongCo.c                          0x00000000   Number         0  tatdongco.o ABSOLUTE
    src\Taxi\HP2010.c                        0x00000000   Number         0  hp2010.o ABSOLUTE
    src\Updatefimware.c                      0x00000000   Number         0  updatefimware.o ABSOLUTE
    src\Utilities.c                          0x00000000   Number         0  utilities.o ABSOLUTE
    src\Watchdog.c                           0x00000000   Number         0  watchdog.o ABSOLUTE
    src\\AmThanh\\AmThanh.c                  0x00000000   Number         0  amthanh.o ABSOLUTE
    src\\BGT\\BGT_Alarm.c                    0x00000000   Number         0  bgt_alarm.o ABSOLUTE
    src\\BGT\\BGT_Command.c                  0x00000000   Number         0  bgt_command.o ABSOLUTE
    src\\BGT\\BGT_Data.c                     0x00000000   Number         0  bgt_data.o ABSOLUTE
    src\\BGT\\BGT_Laixe.c                    0x00000000   Number         0  bgt_laixe.o ABSOLUTE
    src\\BGT\\BGT_Process.c                  0x00000000   Number         0  bgt_process.o ABSOLUTE
    src\\BGT\\BGT_RFID.c                     0x00000000   Number         0  bgt_rfid.o ABSOLUTE
    src\\Buzz.c                              0x00000000   Number         0  buzz.o ABSOLUTE
    src\\CauHinh.c                           0x00000000   Number         0  cauhinh.o ABSOLUTE
    src\\Configuration.c                     0x00000000   Number         0  configuration.o ABSOLUTE
    src\\DataFlash.c                         0x00000000   Number         0  dataflash.o ABSOLUTE
    src\\Debug.c                             0x00000000   Number         0  debug.o ABSOLUTE
    src\\GPS\\GPS_Hardware.c                 0x00000000   Number         0  gps_hardware.o ABSOLUTE
    src\\GPS\\GPS_Process.c                  0x00000000   Number         0  gps_process.o ABSOLUTE
    src\\GSM\\GSM_GPRS.c                     0x00000000   Number         0  gsm_gprs.o ABSOLUTE
    src\\GSM\\GSM_Hardware.c                 0x00000000   Number         0  gsm_hardware.o ABSOLUTE
    src\\GSM\\GSM_M95.c                      0x00000000   Number         0  gsm_m95.o ABSOLUTE
    src\\GSM\\GSM_Message.c                  0x00000000   Number         0  gsm_message.o ABSOLUTE
    src\\GSM\\GSM_Process.c                  0x00000000   Number         0  gsm_process.o ABSOLUTE
    src\\GSM\\GSM_SMS.c                      0x00000000   Number         0  gsm_sms.o ABSOLUTE
    src\\GSM\\GSM_ServerProcess.c            0x00000000   Number         0  gsm_serverprocess.o ABSOLUTE
    src\\HardwareManager.c                   0x00000000   Number         0  hardwaremanager.o ABSOLUTE
    src\\InitSystem.c                        0x00000000   Number         0  initsystem.o ABSOLUTE
    src\\Interrupt.c                         0x00000000   Number         0  interrupt.o ABSOLUTE
    src\\Led.c                               0x00000000   Number         0  led.o ABSOLUTE
    src\\MaHoa\\Base64.c                     0x00000000   Number         0  base64.o ABSOLUTE
    src\\MaHoa\\DES.c                        0x00000000   Number         0  des.o ABSOLUTE
    src\\MaHoa\\MaHoa.c                      0x00000000   Number         0  mahoa.o ABSOLUTE
    src\\Measurement.c                       0x00000000   Number         0  measurement.o ABSOLUTE
    src\\Memories\\FRAM.c                    0x00000000   Number         0  fram.o ABSOLUTE
    src\\NhienLieu.c                         0x00000000   Number         0  nhienlieu.o ABSOLUTE
    src\\OldDataProcess.c                    0x00000000   Number         0  olddataprocess.o ABSOLUTE
    src\\RTC.c                               0x00000000   Number         0  rtc.o ABSOLUTE
    src\\TatDongCo.c                         0x00000000   Number         0  tatdongco.o ABSOLUTE
    src\\Taxi\\HP2010.c                      0x00000000   Number         0  hp2010.o ABSOLUTE
    src\\Updatefimware.c                     0x00000000   Number         0  updatefimware.o ABSOLUTE
    src\\Utilities.c                         0x00000000   Number         0  utilities.o ABSOLUTE
    src\\Watchdog.c                          0x00000000   Number         0  watchdog.o ABSOLUTE
    src\\flash_if.c                          0x00000000   Number         0  flash_if.o ABSOLUTE
    src\\main.c                              0x00000000   Number         0  main.o ABSOLUTE
    src\flash_if.c                           0x00000000   Number         0  flash_if.o ABSOLUTE
    src\main.c                               0x00000000   Number         0  main.o ABSOLUTE
    RESET                                    0x08008000   Section      388  startup_stm32f2xx.o(RESET)
    !!!main                                  0x08008184   Section        8  __main.o(!!!main)
    !!!scatter                               0x0800818c   Section       52  __scatter.o(!!!scatter)
    !!dczerorl2                              0x080081c0   Section       90  __dczerorl2.o(!!dczerorl2)
    !!handler_zi                             0x0800821c   Section       28  __scatter_zi.o(!!handler_zi)
    .ARM.Collect$$_printf_percent$$00000000  0x08008238   Section        0  _printf_percent.o(.ARM.Collect$$_printf_percent$$00000000)
    .ARM.Collect$$_printf_percent$$00000003  0x08008238   Section        6  _printf_f.o(.ARM.Collect$$_printf_percent$$00000003)
    .ARM.Collect$$_printf_percent$$00000009  0x0800823e   Section        6  _printf_d.o(.ARM.Collect$$_printf_percent$$00000009)
    .ARM.Collect$$_printf_percent$$0000000A  0x08008244   Section        6  _printf_u.o(.ARM.Collect$$_printf_percent$$0000000A)
    .ARM.Collect$$_printf_percent$$00000014  0x0800824a   Section        6  _printf_s.o(.ARM.Collect$$_printf_percent$$00000014)
    .ARM.Collect$$_printf_percent$$00000017  0x08008250   Section        4  _printf_percent_end.o(.ARM.Collect$$_printf_percent$$00000017)
    .ARM.Collect$$libinit$$00000000          0x08008254   Section        2  libinit.o(.ARM.Collect$$libinit$$00000000)
    .ARM.Collect$$libinit$$00000002          0x08008256   Section        0  libinit2.o(.ARM.Collect$$libinit$$00000002)
    .ARM.Collect$$libinit$$00000004          0x08008256   Section        0  libinit2.o(.ARM.Collect$$libinit$$00000004)
    .ARM.Collect$$libinit$$0000000A          0x08008256   Section        0  libinit2.o(.ARM.Collect$$libinit$$0000000A)
    .ARM.Collect$$libinit$$0000000C          0x08008256   Section        0  libinit2.o(.ARM.Collect$$libinit$$0000000C)
    .ARM.Collect$$libinit$$0000000E          0x08008256   Section        0  libinit2.o(.ARM.Collect$$libinit$$0000000E)
    .ARM.Collect$$libinit$$0000000F          0x08008256   Section        6  libinit2.o(.ARM.Collect$$libinit$$0000000F)
    .ARM.Collect$$libinit$$00000011          0x0800825c   Section        0  libinit2.o(.ARM.Collect$$libinit$$00000011)
    .ARM.Collect$$libinit$$00000012          0x0800825c   Section       12  libinit2.o(.ARM.Collect$$libinit$$00000012)
    .ARM.Collect$$libinit$$00000013          0x08008268   Section        0  libinit2.o(.ARM.Collect$$libinit$$00000013)
    .ARM.Collect$$libinit$$00000015          0x08008268   Section        0  libinit2.o(.ARM.Collect$$libinit$$00000015)
    .ARM.Collect$$libinit$$00000016          0x08008268   Section       10  libinit2.o(.ARM.Collect$$libinit$$00000016)
    .ARM.Collect$$libinit$$00000017          0x08008272   Section        0  libinit2.o(.ARM.Collect$$libinit$$00000017)
    .ARM.Collect$$libinit$$00000019          0x08008272   Section        0  libinit2.o(.ARM.Collect$$libinit$$00000019)
    .ARM.Collect$$libinit$$0000001B          0x08008272   Section        0  libinit2.o(.ARM.Collect$$libinit$$0000001B)
    .ARM.Collect$$libinit$$0000001D          0x08008272   Section        0  libinit2.o(.ARM.Collect$$libinit$$0000001D)
    .ARM.Collect$$libinit$$0000001F          0x08008272   Section        0  libinit2.o(.ARM.Collect$$libinit$$0000001F)
    .ARM.Collect$$libinit$$00000021          0x08008272   Section        0  libinit2.o(.ARM.Collect$$libinit$$00000021)
    .ARM.Collect$$libinit$$00000023          0x08008272   Section        0  libinit2.o(.ARM.Collect$$libinit$$00000023)
    .ARM.Collect$$libinit$$00000025          0x08008272   Section        0  libinit2.o(.ARM.Collect$$libinit$$00000025)
    .ARM.Collect$$libinit$$0000002C          0x08008272   Section        0  libinit2.o(.ARM.Collect$$libinit$$0000002C)
    .ARM.Collect$$libinit$$0000002E          0x08008272   Section        0  libinit2.o(.ARM.Collect$$libinit$$0000002E)
    .ARM.Collect$$libinit$$00000030          0x08008272   Section        0  libinit2.o(.ARM.Collect$$libinit$$00000030)
    .ARM.Collect$$libinit$$00000032          0x08008272   Section        0  libinit2.o(.ARM.Collect$$libinit$$00000032)
    .ARM.Collect$$libinit$$00000033          0x08008272   Section        2  libinit2.o(.ARM.Collect$$libinit$$00000033)
    .ARM.Collect$$libshutdown$$00000000      0x08008274   Section        2  libshutdown.o(.ARM.Collect$$libshutdown$$00000000)
    .ARM.Collect$$libshutdown$$00000002      0x08008276   Section        0  libshutdown2.o(.ARM.Collect$$libshutdown$$00000002)
    .ARM.Collect$$libshutdown$$00000004      0x08008276   Section        0  libshutdown2.o(.ARM.Collect$$libshutdown$$00000004)
    .ARM.Collect$$libshutdown$$00000007      0x08008276   Section        0  libshutdown2.o(.ARM.Collect$$libshutdown$$00000007)
    .ARM.Collect$$libshutdown$$0000000A      0x08008276   Section        0  libshutdown2.o(.ARM.Collect$$libshutdown$$0000000A)
    .ARM.Collect$$libshutdown$$0000000C      0x08008276   Section        0  libshutdown2.o(.ARM.Collect$$libshutdown$$0000000C)
    .ARM.Collect$$libshutdown$$0000000F      0x08008276   Section        0  libshutdown2.o(.ARM.Collect$$libshutdown$$0000000F)
    .ARM.Collect$$libshutdown$$00000010      0x08008276   Section        2  libshutdown2.o(.ARM.Collect$$libshutdown$$00000010)
    .ARM.Collect$$rtentry$$00000000          0x08008278   Section        0  __rtentry.o(.ARM.Collect$$rtentry$$00000000)
    .ARM.Collect$$rtentry$$00000002          0x08008278   Section        0  __rtentry2.o(.ARM.Collect$$rtentry$$00000002)
    .ARM.Collect$$rtentry$$00000004          0x08008278   Section        6  __rtentry4.o(.ARM.Collect$$rtentry$$00000004)
    .ARM.Collect$$rtentry$$00000009          0x0800827e   Section        0  __rtentry2.o(.ARM.Collect$$rtentry$$00000009)
    .ARM.Collect$$rtentry$$0000000A          0x0800827e   Section        4  __rtentry2.o(.ARM.Collect$$rtentry$$0000000A)
    .ARM.Collect$$rtentry$$0000000C          0x08008282   Section        0  __rtentry2.o(.ARM.Collect$$rtentry$$0000000C)
    .ARM.Collect$$rtentry$$0000000D          0x08008282   Section        8  __rtentry2.o(.ARM.Collect$$rtentry$$0000000D)
    .ARM.Collect$$rtexit$$00000000           0x0800828a   Section        2  rtexit.o(.ARM.Collect$$rtexit$$00000000)
    .ARM.Collect$$rtexit$$00000002           0x0800828c   Section        0  rtexit2.o(.ARM.Collect$$rtexit$$00000002)
    .ARM.Collect$$rtexit$$00000003           0x0800828c   Section        4  rtexit2.o(.ARM.Collect$$rtexit$$00000003)
    .ARM.Collect$$rtexit$$00000004           0x08008290   Section        6  rtexit2.o(.ARM.Collect$$rtexit$$00000004)
    .text                                    0x08008298   Section        0  led.o(.text)
    Led_CapNhatTrangThaiHeThong              0x0800831f   Thumb Code   216  led.o(.text)
    .text                                    0x080085e8   Section        0  main.o(.text)
    XyLySuKien_1000ms                        0x080085ff   Thumb Code    44  main.o(.text)
    XyLySuKien_100ms                         0x0800862b   Thumb Code    16  main.o(.text)
    .text                                    0x08008720   Section        0  buzz.o(.text)
    .text                                    0x080087f0   Section        0  debug.o(.text)
    .text                                    0x08008ae0   Section        0  utilities.o(.text)
    .text                                    0x08008e98   Section        0  interrupt.o(.text)
    .text                                    0x080091bc   Section        0  cauhinh.o(.text)
    CauHinh_KiemTraThongTinCauHinh           0x080092ad   Thumb Code    64  cauhinh.o(.text)
    CauHinh_CaiDatThoiGianChinhSua           0x0800935f   Thumb Code   308  cauhinh.o(.text)
    CauHinh_CaiDatThoiGianLapDat             0x08009493   Thumb Code   410  cauhinh.o(.text)
    .text                                    0x0800a048   Section        0  initsystem.o(.text)
    NVIC_SetPriority                         0x0800a049   Thumb Code    32  initsystem.o(.text)
    System_LayThoiGianRelease                0x0800a135   Thumb Code   284  initsystem.o(.text)
    System_KhoiTaoCacBien                    0x0800a31f   Thumb Code    58  initsystem.o(.text)
    .text                                    0x0800a430   Section        0  watchdog.o(.text)
    .text                                    0x0800a4a8   Section        0  tatdongco.o(.text)
    KhoaXe_SoftwareInitialize                0x0800a4a9   Thumb Code     8  tatdongco.o(.text)
    KhoaXe_HardwareInitialize                0x0800a4b1   Thumb Code    44  tatdongco.o(.text)
    .text                                    0x0800a668   Section        0  measurement.o(.text)
    Measurement_HardwareInitialize           0x0800a9d1   Thumb Code   110  measurement.o(.text)
    .text                                    0x0800ae2c   Section        0  configuration.o(.text)
    Config_LaySoDienThoai                    0x0800ae5b   Thumb Code   118  configuration.o(.text)
    Config_KiemTraCacCheDo                   0x0800aed1   Thumb Code   156  configuration.o(.text)
    .text                                    0x0800b2dc   Section        0  olddataprocess.o(.text)
    OldData_CompareTime                      0x0800b2f7   Thumb Code   138  olddataprocess.o(.text)
    OldData_CompareWithCalTime               0x0800b381   Thumb Code    62  olddataprocess.o(.text)
    OldData_TinhDiaChiTiep                   0x0800b3bf   Thumb Code   234  olddataprocess.o(.text)
    OldData_DangKyThoiGianGuiTin             0x0800b8d7   Thumb Code    56  olddataprocess.o(.text)
    .text                                    0x0800ba48   Section        0  hardwaremanager.o(.text)
    .text                                    0x0800bdbc   Section        0  flash_if.o(.text)
    GetSector                                0x0800bdcb   Thumb Code   130  flash_if.o(.text)
    .text                                    0x0800bf54   Section        0  updatefimware.o(.text)
    .text                                    0x0800c264   Section        0  bgt_data.o(.text)
    BGT_TinhToanDiaChiGhiDuLieu              0x0800c265   Thumb Code   100  bgt_data.o(.text)
    BGT_KiemTraDuLieuNgayMoi                 0x0800c321   Thumb Code   220  bgt_data.o(.text)
    .text                                    0x0800cb30   Section        0  bgt_rfid.o(.text)
    RFID_SoftwareInitialize                  0x0800cb31   Thumb Code    48  bgt_rfid.o(.text)
    RFID_HardwareInitialize                  0x0800cb61   Thumb Code   274  bgt_rfid.o(.text)
    RFID_SendByte                            0x0800cc7f   Thumb Code    28  bgt_rfid.o(.text)
    RFID_SendString                          0x0800cc9b   Thumb Code    36  bgt_rfid.o(.text)
    RFID_GuiTrangThaiHeThong                 0x0800ccbf   Thumb Code    86  bgt_rfid.o(.text)
    RFID_SendAndConfirm                      0x0800cd15   Thumb Code   140  bgt_rfid.o(.text)
    RFID_ConnectionTimeOut                   0x0800ce47   Thumb Code    54  bgt_rfid.o(.text)
    RFID_CheckPacket                         0x0800cfa1   Thumb Code   136  bgt_rfid.o(.text)
    .text                                    0x0800d28c   Section        0  bgt_laixe.o(.text)
    LaiXe_KiemTraDuLieu                      0x0800d28d   Thumb Code    56  bgt_laixe.o(.text)
    LaiXe_GhiThongTinDangNhapCuaLaiXe        0x0800d2ff   Thumb Code    60  bgt_laixe.o(.text)
    .text                                    0x0800d898   Section        0  bgt_alarm.o(.text)
    Alarm_OverSpeed                          0x0800d899   Thumb Code   194  bgt_alarm.o(.text)
    Alarm_DriveContinuous                    0x0800d95b   Thumb Code    58  bgt_alarm.o(.text)
    .text                                    0x0800d9e0   Section        0  bgt_process.o(.text)
    BGT_MinuteTick                           0x0800d9e9   Thumb Code    68  bgt_process.o(.text)
    BGT_SecondTick                           0x0800da8b   Thumb Code   110  bgt_process.o(.text)
    .text                                    0x0800db58   Section        0  bgt_command.o(.text)
    BGT_SendDataToCom                        0x0800db59   Thumb Code   114  bgt_command.o(.text)
    BGT_GuiThongTinDungDo                    0x0800dbcb   Thumb Code   534  bgt_command.o(.text)
    BGT_GuiThongTinVanTocTungGiay            0x0800dde1   Thumb Code   460  bgt_command.o(.text)
    BGT_GuiThongTinHanhTrinh                 0x0800dfad   Thumb Code   358  bgt_command.o(.text)
    BGT_GuiThongTinLaiXe                     0x0800e113   Thumb Code   448  bgt_command.o(.text)
    BGT_GuiThongTinChung                     0x0800e2d3   Thumb Code  1078  bgt_command.o(.text)
    .text                                    0x0800e8ec   Section        0  hp2010.o(.text)
    HP2010_SoftwareInitialize                0x0800e8ed   Thumb Code    60  hp2010.o(.text)
    HP2010_HardwareInitialize                0x0800e929   Thumb Code   222  hp2010.o(.text)
    HP2010_GuiDuLieuCuocKhachLenServer       0x0800eb53   Thumb Code    78  hp2010.o(.text)
    HP2010_XuLyCuocKhach                     0x0800eba1   Thumb Code   526  hp2010.o(.text)
    HP2010_SendByte                          0x0800ede5   Thumb Code    32  hp2010.o(.text)
    HP2010_SendBytes                         0x0800ee05   Thumb Code    38  hp2010.o(.text)
    .text                                    0x0800f214   Section        0  gps_process.o(.text)
    GPS_ValidCheckSum                        0x0800f24d   Thumb Code    72  gps_process.o(.text)
    GPS_PhanTichBanTin                       0x0800f2bb   Thumb Code  1068  gps_process.o(.text)
    .text                                    0x0800f854   Section        0  gps_hardware.o(.text)
    GPS_SendByte                             0x0800f855   Thumb Code    28  gps_hardware.o(.text)
    GPS_SendString                           0x0800f871   Thumb Code    22  gps_hardware.o(.text)
    GPS_HardwareInitialize                   0x0800f887   Thumb Code   330  gps_hardware.o(.text)
    GPS_SendCommand                          0x0800f9d1   Thumb Code    32  gps_hardware.o(.text)
    .text                                    0x0800fc48   Section        0  gsm_m95.o(.text)
    .text                                    0x0800fff4   Section        0  gsm_sms.o(.text)
    SMS_Delete15Message                      0x0800fff5   Thumb Code   188  gsm_sms.o(.text)
    SMS_SendCmd                              0x080100b9   Thumb Code   270  gsm_sms.o(.text)
    .text                                    0x08010b48   Section        0  gsm_gprs.o(.text)
    .text                                    0x08011508   Section        0  gsm_process.o(.text)
    .text                                    0x08011620   Section        0  gsm_message.o(.text)
    Message_XoaBoDem                         0x08011683   Thumb Code    24  gsm_message.o(.text)
    Message_GuiBanTinHanhTrinh               0x080116e1   Thumb Code   952  gsm_message.o(.text)
    Message_PacketLogin                      0x08011b8f   Thumb Code   212  gsm_message.o(.text)
    Message_GuiBanTinLogin                   0x08011c63   Thumb Code    62  gsm_message.o(.text)
    .text                                    0x08013b6c   Section        0  gsm_hardware.o(.text)
    GSM_SoftwareInitialize                   0x08013b6d   Thumb Code    36  gsm_hardware.o(.text)
    GSM_IOInitialize                         0x08013b91   Thumb Code   168  gsm_hardware.o(.text)
    GSM_HardwareInitialize                   0x08013c39   Thumb Code   222  gsm_hardware.o(.text)
    .text                                    0x080142ac   Section        0  gsm_serverprocess.o(.text)
    Server_XulyBanTinXacNhanThongTinDongHo   0x080142ad   Thumb Code   302  gsm_serverprocess.o(.text)
    Server_XyLyGuiLaiVanTocTungGiay          0x080143db   Thumb Code  1024  gsm_serverprocess.o(.text)
    Server_XulyBanTinXacNhanVanTocTungGiay   0x080147db   Thumb Code    66  gsm_serverprocess.o(.text)
    Server_XuLyBanTinXacNhanThongTinLaiXe    0x0801481d   Thumb Code    68  gsm_serverprocess.o(.text)
    Server_XuLyBanTinXacNhanHanhTrinhCu      0x08014861   Thumb Code   240  gsm_serverprocess.o(.text)
    Server_XuLyBanTinXacNhanHanhTrinh        0x08014951   Thumb Code   362  gsm_serverprocess.o(.text)
    Server_XuLyBanTinLogin                   0x08014abb   Thumb Code   946  gsm_serverprocess.o(.text)
    Server_XuLyBanTinSOS                     0x08014e6d   Thumb Code    44  gsm_serverprocess.o(.text)
    .text                                    0x08015288   Section        0  rtc.o(.text)
    RTC_TimeRegulate                         0x080152d1   Thumb Code   100  rtc.o(.text)
    .text                                    0x0801582c   Section        0  fram.o(.text)
    SPI_FRAM_SendByte                        0x0801582d   Thumb Code    66  fram.o(.text)
    FRAM_EnableWrite                         0x080158b9   Thumb Code    30  fram.o(.text)
    FRAM_SeftTest                            0x08015923   Thumb Code    78  fram.o(.text)
    FRAM_InitSoftware                        0x08015971   Thumb Code     8  fram.o(.text)
    FRAM_InitHardware                        0x08015979   Thumb Code   242  fram.o(.text)
    .text                                    0x08015dd4   Section        0  dataflash.o(.text)
    FLASH_SPI_SendByte                       0x08015dd5   Thumb Code    72  dataflash.o(.text)
    FLASH_CheckConnection                    0x08015e1d   Thumb Code   130  dataflash.o(.text)
    FLASH_EnableWrite                        0x08015e9f   Thumb Code    26  dataflash.o(.text)
    FLASH_HardwareInitialize                 0x08015eb9   Thumb Code   256  dataflash.o(.text)
    .text                                    0x0801627c   Section        0  des.o(.text)
    deskey                                   0x0801627d   Thumb Code   526  des.o(.text)
    desfunc                                  0x080164ab   Thumb Code   418  des.o(.text)
    .text                                    0x080166ec   Section        0  base64.o(.text)
    .text                                    0x080168f4   Section        0  mahoa.o(.text)
    .text                                    0x080169f4   Section        0  amthanh.o(.text)
    AmThanh_SoftwareInitialize               0x080169f5   Thumb Code    16  amthanh.o(.text)
    AmThanh_HardwareInitialize               0x08016a33   Thumb Code    56  amthanh.o(.text)
    .text                                    0x08016b70   Section        0  nhienlieu.o(.text)
    NhienLieu_SoftwareInitialize             0x08016b71   Thumb Code    14  nhienlieu.o(.text)
    NhienLieu_HardwareInitialize             0x08016b7f   Thumb Code    46  nhienlieu.o(.text)
    NhieuLieu_XuLyDuLieu                     0x08016bb9   Thumb Code   122  nhienlieu.o(.text)
    NhienLieu_CalculateADC                   0x08016c33   Thumb Code    46  nhienlieu.o(.text)
    .text                                    0x08016cb0   Section        0  misc.o(.text)
    .text                                    0x08016d90   Section        0  stm32f2xx_adc.o(.text)
    .text                                    0x080171f4   Section        0  stm32f2xx_dma.o(.text)
    .text                                    0x0801759c   Section        0  stm32f2xx_exti.o(.text)
    .text                                    0x080176b8   Section        0  stm32f2xx_flash.o(.text)
    .text                                    0x08017b74   Section        0  stm32f2xx_gpio.o(.text)
    .text                                    0x08017dd0   Section        0  stm32f2xx_iwdg.o(.text)
    .text                                    0x08017e10   Section        0  stm32f2xx_pwr.o(.text)
    .text                                    0x08017ee8   Section        0  stm32f2xx_rcc.o(.text)
    .text                                    0x08018470   Section        0  stm32f2xx_rtc.o(.text)
    RTC_ByteToBcd2                           0x080186b7   Thumb Code    28  stm32f2xx_rtc.o(.text)
    RTC_Bcd2ToByte                           0x080186d3   Thumb Code    22  stm32f2xx_rtc.o(.text)
    .text                                    0x08018f78   Section        0  stm32f2xx_spi.o(.text)
    .text                                    0x08019320   Section        0  stm32f2xx_syscfg.o(.text)
    .text                                    0x080193ac   Section        0  stm32f2xx_tim.o(.text)
    TI4_Config                               0x08019b4b   Thumb Code    80  stm32f2xx_tim.o(.text)
    TI3_Config                               0x08019bad   Thumb Code    72  stm32f2xx_tim.o(.text)
    TI2_Config                               0x08019c0f   Thumb Code    90  stm32f2xx_tim.o(.text)
    TI1_Config                               0x08019c7b   Thumb Code    58  stm32f2xx_tim.o(.text)
    .text                                    0x0801a050   Section        0  stm32f2xx_usart.o(.text)
    .text                                    0x0801a46c   Section       64  startup_stm32f2xx.o(.text)
    .text                                    0x0801a4ac   Section        0  system_stm32f2xx.o(.text)
    SetSysClock                              0x0801a4ad   Thumb Code   192  system_stm32f2xx.o(.text)
    .text                                    0x0801a68c   Section        0  __2sprintf.o(.text)
    .text                                    0x0801a6b8   Section        0  _printf_pad.o(.text)
    .text                                    0x0801a706   Section        0  _printf_str.o(.text)
    .text                                    0x0801a758   Section        0  _printf_dec.o(.text)
    .text                                    0x0801a7d0   Section        0  __printf_flags_wp.o(.text)
    .text                                    0x0801a908   Section        0  atoi.o(.text)
    .text                                    0x0801a924   Section        0  strtok.o(.text)
    .text                                    0x0801a930   Section        0  strstr.o(.text)
    .text                                    0x0801a954   Section        0  strcpy.o(.text)
    .text                                    0x0801a99c   Section        0  strlen.o(.text)
    .text                                    0x0801a9da   Section        0  strcat.o(.text)
    .text                                    0x0801a9f2   Section      138  rt_memcpy_v6.o(.text)
    .text                                    0x0801aa7c   Section      100  rt_memcpy_w.o(.text)
    .text                                    0x0801aae0   Section       78  rt_memclr_w.o(.text)
    .text                                    0x0801ab30   Section      128  strcmpv7m.o(.text)
    .text                                    0x0801abb0   Section        0  localtime.o(.text)
    .text                                    0x0801abbc   Section        0  mktime.o(.text)
    _tm_carry                                0x0801abbd   Thumb Code    62  mktime.o(.text)
    .text                                    0x0801ad68   Section        0  heapauxi.o(.text)
    .text                                    0x0801ad70   Section        8  rt_errno_addr_intlibspace.o(.text)
    .text                                    0x0801ad78   Section        0  _rserrno.o(.text)
    .text                                    0x0801ad8e   Section        0  _printf_intcommon.o(.text)
    .text                                    0x0801ae40   Section        0  _printf_fp_dec.o(.text)
    _fp_digits                               0x0801ae43   Thumb Code   428  _printf_fp_dec.o(.text)
    .text                                    0x0801b25c   Section        0  _printf_char_common.o(.text)
    _printf_input_char                       0x0801b25d   Thumb Code    10  _printf_char_common.o(.text)
    .text                                    0x0801b28c   Section        0  _sputc.o(.text)
    .text                                    0x0801b296   Section        0  _printf_char.o(.text)
    .text                                    0x0801b2c4   Section        0  strtod.o(.text)
    _local_sscanf                            0x0801b2c5   Thumb Code    60  strtod.o(.text)
    .text                                    0x0801b368   Section        0  strtol.o(.text)
    .text                                    0x0801b3d8   Section        0  strtok_int.o(.text)
    .text                                    0x0801b41c   Section        0  localtime_internal.o(.text)
    .text                                    0x0801b4d4   Section        8  libspace.o(.text)
    .text                                    0x0801b4dc   Section       16  rt_ctype_table.o(.text)
    .text                                    0x0801b4ec   Section        8  rt_locale_intlibspace.o(.text)
    .text                                    0x0801b4f4   Section      138  lludiv10.o(.text)
    .text                                    0x0801b57e   Section        0  isspace.o(.text)
    .text                                    0x0801b590   Section        0  _printf_fp_infnan.o(.text)
    .text                                    0x0801b610   Section        0  _sgetc.o(.text)
    .text                                    0x0801b650   Section        0  _strtoul.o(.text)
    .text                                    0x0801b6f0   Section        0  bigflt0.o(.text)
    .text                                    0x0801b7cc   Section        0  strcspn.o(.text)
    .text                                    0x0801b7ec   Section        0  strspn.o(.text)
    .text                                    0x0801b808   Section       74  sys_stackheap_outer.o(.text)
    .text                                    0x0801b852   Section        0  _chval.o(.text)
    .text                                    0x0801b870   Section        0  scanf_fp.o(.text)
    _fp_value                                0x0801b871   Thumb Code   508  scanf_fp.o(.text)
    .text                                    0x0801bd14   Section        0  exit.o(.text)
    .text                                    0x0801bd28   Section        0  scanf_hexfp.o(.text)
    .text                                    0x0801c048   Section        0  scanf_infnan.o(.text)
    .text                                    0x0801c17c   Section        0  sys_exit.o(.text)
    .text                                    0x0801c188   Section       38  llshl.o(.text)
    .text                                    0x0801c1ae   Section        2  use_no_semi.o(.text)
    .text                                    0x0801c1b0   Section        0  indicate_semi.o(.text)
    CL$$btod_d2e                             0x0801c1b0   Section       62  btod.o(CL$$btod_d2e)
    CL$$btod_d2e_denorm_low                  0x0801c1ee   Section       70  btod.o(CL$$btod_d2e_denorm_low)
    CL$$btod_d2e_norm_op1                    0x0801c234   Section       96  btod.o(CL$$btod_d2e_norm_op1)
    CL$$btod_div_common                      0x0801c294   Section      824  btod.o(CL$$btod_div_common)
    CL$$btod_e2d                             0x0801c5cc   Section       84  btod.o(CL$$btod_e2d)
    CL$$btod_e2e                             0x0801c620   Section      198  btod.o(CL$$btod_e2e)
    CL$$btod_ediv                            0x0801c6e6   Section       40  btod.o(CL$$btod_ediv)
    CL$$btod_edivd                           0x0801c70e   Section       40  btod.o(CL$$btod_edivd)
    CL$$btod_emul                            0x0801c736   Section       40  btod.o(CL$$btod_emul)
    CL$$btod_emuld                           0x0801c75e   Section       40  btod.o(CL$$btod_emuld)
    CL$$btod_mult_common                     0x0801c786   Section      580  btod.o(CL$$btod_mult_common)
    i.__ARM_fpclassify                       0x0801c9ca   Section        0  fpclassify.o(i.__ARM_fpclassify)
    i.__mathlib_dbl_overflow                 0x0801c9f2   Section        0  dunder.o(i.__mathlib_dbl_overflow)
    i.__mathlib_dbl_underflow                0x0801ca00   Section        0  dunder.o(i.__mathlib_dbl_underflow)
    i.__mathlib_narrow                       0x0801ca10   Section        0  narrow.o(i.__mathlib_narrow)
    i.__mathlib_tofloat                      0x0801ca20   Section        0  narrow.o(i.__mathlib_tofloat)
    i.__support_ldexp                        0x0801caa8   Section        0  ldexp.o(i.__support_ldexp)
    i._is_digit                              0x0801cabe   Section        0  __printf_wp.o(i._is_digit)
    i.atof                                   0x0801cacc   Section        0  atof.o(i.atof)
    i.frexp                                  0x0801caf8   Section        0  frexp.o(i.frexp)
    i.ldexp                                  0x0801cb50   Section        0  ldexp.o(i.ldexp)
    locale$$code                             0x0801cbc4   Section       44  lc_numeric_c.o(locale$$code)
    locale$$code                             0x0801cbf0   Section       44  lc_ctype_c.o(locale$$code)
    x$fpl$d2f                                0x0801cc1c   Section       98  d2f.o(x$fpl$d2f)
    x$fpl$dcheck1                            0x0801cc80   Section       16  dcheck1.o(x$fpl$dcheck1)
    x$fpl$dcmpinf                            0x0801cc90   Section       24  dcmpi.o(x$fpl$dcmpinf)
    x$fpl$deqf                               0x0801cca8   Section      120  deqf.o(x$fpl$deqf)
    x$fpl$dfixu                              0x0801cd20   Section       90  dfixu.o(x$fpl$dfixu)
    x$fpl$dfltu                              0x0801cd7a   Section       38  dflt_clz.o(x$fpl$dfltu)
    x$fpl$dleqf                              0x0801cda0   Section      120  dleqf.o(x$fpl$dleqf)
    x$fpl$dmul                               0x0801ce18   Section      340  dmul.o(x$fpl$dmul)
    x$fpl$dnaninf                            0x0801cf6c   Section      156  dnaninf.o(x$fpl$dnaninf)
    x$fpl$dretinf                            0x0801d008   Section       12  dretinf.o(x$fpl$dretinf)
    x$fpl$drleqf                             0x0801d014   Section      108  drleqf.o(x$fpl$drleqf)
    x$fpl$f2d                                0x0801d080   Section       86  f2d.o(x$fpl$f2d)
    x$fpl$fadd                               0x0801d0d8   Section      196  faddsub_clz.o(x$fpl$fadd)
    _fadd1                                   0x0801d0e7   Thumb Code     0  faddsub_clz.o(x$fpl$fadd)
    x$fpl$fdiv                               0x0801d19c   Section      388  fdiv.o(x$fpl$fdiv)
    _fdiv1                                   0x0801d19d   Thumb Code     0  fdiv.o(x$fpl$fdiv)
    x$fpl$ffixu                              0x0801d320   Section       62  ffixu.o(x$fpl$ffixu)
    x$fpl$fflt                               0x0801d360   Section       48  fflt_clz.o(x$fpl$fflt)
    x$fpl$ffltu                              0x0801d390   Section       38  fflt_clz.o(x$fpl$ffltu)
    x$fpl$fmul                               0x0801d3b8   Section      258  fmul.o(x$fpl$fmul)
    x$fpl$fnaninf                            0x0801d4ba   Section      140  fnaninf.o(x$fpl$fnaninf)
    x$fpl$fretinf                            0x0801d546   Section       10  fretinf.o(x$fpl$fretinf)
    x$fpl$fsub                               0x0801d550   Section      234  faddsub_clz.o(x$fpl$fsub)
    _fsub1                                   0x0801d55f   Thumb Code     0  faddsub_clz.o(x$fpl$fsub)
    x$fpl$printf1                            0x0801d63a   Section        4  printf1.o(x$fpl$printf1)
    x$fpl$retnan                             0x0801d63e   Section      100  retnan.o(x$fpl$retnan)
    x$fpl$scalbn                             0x0801d6a2   Section       92  scalbn.o(x$fpl$scalbn)
    x$fpl$scanf1                             0x0801d6fe   Section        4  scanf1.o(x$fpl$scanf1)
    x$fpl$scanf2                             0x0801d702   Section        8  scanf2.o(x$fpl$scanf2)
    x$fpl$trapveneer                         0x0801d70a   Section       48  trapv.o(x$fpl$trapveneer)
    .constdata                               0x0801d73a   Section      321  base64.o(.constdata)
    x$fpl$usenofp                            0x0801d73a   Section        0  usenofp.o(x$fpl$usenofp)
    pr2six                                   0x0801d73a   Data         256  base64.o(.constdata)
    basis_64                                 0x0801d83a   Data          65  base64.o(.constdata)
    .constdata                               0x0801d87b   Section       17  __printf_flags_wp.o(.constdata)
    maptable                                 0x0801d87b   Data          17  __printf_flags_wp.o(.constdata)
    .constdata                               0x0801d88c   Section       12  _monlen.o(.constdata)
    .constdata                               0x0801d898   Section      148  bigflt0.o(.constdata)
    tenpwrs_x                                0x0801d898   Data          60  bigflt0.o(.constdata)
    tenpwrs_i                                0x0801d8d4   Data          64  bigflt0.o(.constdata)
    .conststring                             0x0801d92c   Section       67  gsm_serverprocess.o(.conststring)
    .conststring                             0x0801d970   Section       70  nhienlieu.o(.conststring)
    c$$dinf                                  0x0801d9d8   Section        8  fpconst.o(c$$dinf)
    locale$$data                             0x0801d9e0   Section       28  lc_numeric_c.o(locale$$data)
    __lcnum_c_name                           0x0801d9e4   Data           2  lc_numeric_c.o(locale$$data)
    __lcnum_c_start                          0x0801d9ec   Data           0  lc_numeric_c.o(locale$$data)
    __lcnum_c_point                          0x0801d9f8   Data           0  lc_numeric_c.o(locale$$data)
    __lcnum_c_thousands                      0x0801d9fa   Data           0  lc_numeric_c.o(locale$$data)
    __lcnum_c_grouping                       0x0801d9fb   Data           0  lc_numeric_c.o(locale$$data)
    locale$$data                             0x0801d9fc   Section      272  lc_ctype_c.o(locale$$data)
    __lcnum_c_end                            0x0801d9fc   Data           0  lc_numeric_c.o(locale$$data)
    __lcctype_c_name                         0x0801da00   Data           2  lc_ctype_c.o(locale$$data)
    __lcctype_c_start                        0x0801da08   Data           0  lc_ctype_c.o(locale$$data)
    __lcctype_c_end                          0x0801db0c   Data           0  lc_ctype_c.o(locale$$data)
    .data                                    0x20000000   Section        7  led.o(.data)
    .data                                    0x20000007   Section        3  buzz.o(.data)
    .data                                    0x2000000a   Section        4  interrupt.o(.data)
    BGTTick                                  0x2000000c   Data           1  interrupt.o(.data)
    tmpNewMinute                             0x2000000d   Data           1  interrupt.o(.data)
    .data                                    0x20000010   Section       40  measurement.o(.data)
    XungOld                                  0x20000030   Data           4  measurement.o(.data)
    XungTichLuy                              0x20000034   Data           4  measurement.o(.data)
    .data                                    0x20000038   Section       18  olddataprocess.o(.data)
    .data                                    0x2000004a   Section        1  updatefimware.o(.data)
    .data                                    0x2000004c   Section        3  bgt_data.o(.data)
    LastWriteTime                            0x2000004c   Data           2  bgt_data.o(.data)
    OldFlashDay                              0x2000004e   Data           1  bgt_data.o(.data)
    .data                                    0x2000004f   Section        2  bgt_laixe.o(.data)
    Ticks                                    0x2000004f   Data           1  bgt_laixe.o(.data)
    TrangThaiDiChuyen                        0x20000050   Data           1  bgt_laixe.o(.data)
    .data                                    0x20000051   Section        3  bgt_alarm.o(.data)
    .data                                    0x20000054   Section        5  bgt_process.o(.data)
    OldSecond                                0x20000054   Data           1  bgt_process.o(.data)
    OldMinute                                0x20000055   Data           1  bgt_process.o(.data)
    OldHour                                  0x20000056   Data           1  bgt_process.o(.data)
    OldSecond                                0x20000057   Data           1  bgt_process.o(.data)
    OldSecond                                0x20000058   Data           1  bgt_process.o(.data)
    .data                                    0x20000059   Section        1  hp2010.o(.data)
    TrangThai                                0x20000059   Data           1  hp2010.o(.data)
    .data                                    0x2000005a   Section        7  gps_process.o(.data)
    GPSTick                                  0x20000060   Data           1  gps_process.o(.data)
    .data                                    0x20000062   Section        9  gsm_gprs.o(.data)
    SendErrorCount                           0x20000065   Data           1  gsm_gprs.o(.data)
    ConnectFailCount                         0x20000066   Data           1  gsm_gprs.o(.data)
    .data                                    0x2000006c   Section        2  gsm_hardware.o(.data)
    .data                                    0x20000070   Section       18  rtc.o(.data)
    .data                                    0x20000082   Section        1  fram.o(.data)
    FRAM                                     0x20000082   Data           1  fram.o(.data)
    .data                                    0x20000084   Section        8  dataflash.o(.data)
    Flash                                    0x20000084   Data           1  dataflash.o(.data)
    .data                                    0x2000008c   Section     2280  des.o(.data)
    bytebit                                  0x2000008c   Data          16  des.o(.data)
    bigbyte                                  0x2000009c   Data          96  des.o(.data)
    pc1                                      0x200000fc   Data          56  des.o(.data)
    totrot                                   0x20000134   Data          16  des.o(.data)
    pc2                                      0x20000144   Data          48  des.o(.data)
    SP1                                      0x20000174   Data         256  des.o(.data)
    SP2                                      0x20000274   Data         256  des.o(.data)
    SP3                                      0x20000374   Data         256  des.o(.data)
    SP4                                      0x20000474   Data         256  des.o(.data)
    SP5                                      0x20000574   Data         256  des.o(.data)
    SP6                                      0x20000674   Data         256  des.o(.data)
    SP7                                      0x20000774   Data         256  des.o(.data)
    SP8                                      0x20000874   Data         256  des.o(.data)
    .data                                    0x20000974   Section        6  amthanh.o(.data)
    .data                                    0x2000097a   Section       16  stm32f2xx_rcc.o(.data)
    APBAHBPrescTable                         0x2000097a   Data          16  stm32f2xx_rcc.o(.data)
    .data                                    0x2000098c   Section       20  system_stm32f2xx.o(.data)
    .data                                    0x200009a0   Section        4  strtok.o(.data)
    _strtok_saves1                           0x200009a0   Data           4  strtok.o(.data)
    .bss                                     0x200009a4   Section     6832  main.o(.bss)
    .bss                                     0x20002454   Section      206  cauhinh.o(.bss)
    .bss                                     0x20002522   Section       10  initsystem.o(.bss)
    .bss                                     0x2000252c   Section      176  tatdongco.o(.bss)
    .bss                                     0x200025dc   Section       30  measurement.o(.bss)
    .bss                                     0x200025fa   Section      516  configuration.o(.bss)
    .bss                                     0x20002800   Section      270  olddataprocess.o(.bss)
    .bss                                     0x20002910   Section      300  bgt_data.o(.bss)
    .bss                                     0x20002a3c   Section      526  bgt_rfid.o(.bss)
    .bss                                     0x20002c4c   Section      112  bgt_laixe.o(.bss)
    .bss                                     0x20002cbc   Section      120  bgt_process.o(.bss)
    .bss                                     0x20002d34   Section      344  bgt_command.o(.bss)
    tmpData                                  0x20002d40   Data         250  bgt_command.o(.bss)
    ThongTinLoTrinh                          0x20002e3c   Data          20  bgt_command.o(.bss)
    BufferVanToc                             0x20002e50   Data          60  bgt_command.o(.bss)
    .bss                                     0x20002e8c   Section     1038  hp2010.o(.bss)
    .bss                                     0x2000329c   Section       60  gps_process.o(.bss)
    .bss                                     0x200032d8   Section     1064  gps_hardware.o(.bss)
    .bss                                     0x20003700   Section     1505  gsm_sms.o(.bss)
    .bss                                     0x20003ce2   Section     8760  gsm_gprs.o(.bss)
    .bss                                     0x20005f1c   Section     1088  gsm_message.o(.bss)
    .bss                                     0x2000635c   Section     2072  gsm_hardware.o(.bss)
    .bss                                     0x20006b74   Section     4100  gsm_serverprocess.o(.bss)
    .bss                                     0x20007b78   Section       22  rtc.o(.bss)
    .bss                                     0x20007b90   Section      128  des.o(.bss)
    KnL                                      0x20007b90   Data         128  des.o(.bss)
    .bss                                     0x20007c10   Section     1026  base64.o(.bss)
    .bss                                     0x20008012   Section     1034  mahoa.o(.bss)
    .bss                                     0x2000841c   Section       24  nhienlieu.o(.bss)
    .bss                                     0x20008434   Section       44  localtime.o(.bss)
    _tms                                     0x20008434   Data          44  localtime.o(.bss)
    .bss                                     0x20008460   Section       96  libspace.o(.bss)
    HEAP                                     0x200084c0   Section      512  startup_stm32f2xx.o(HEAP)
    Heap_Mem                                 0x200084c0   Data         512  startup_stm32f2xx.o(HEAP)
    STACK                                    0x200086c0   Section     1024  startup_stm32f2xx.o(STACK)
    Stack_Mem                                0x200086c0   Data        1024  startup_stm32f2xx.o(STACK)
    __initial_sp                             0x20008ac0   Data           0  startup_stm32f2xx.o(STACK)

    Global Symbols

    Symbol Name                              Value     Ov Type        Size  Object(Section)

    BuildAttributes$$THM_ISAv4$P$D$K$B$S$PE$A:L22UL41UL21$X:L11$S22US41US21$IEEE1$IW$USESV6$~STKCKD$USESV7$~SHL$OTIME$ROPI$IEEEX$EBA8$UX$STANDARDLIB$REQ8$PRES8$EABIv2 0x00000000   Number         0  anon$$obj.o ABSOLUTE
    __ARM_use_no_argv                        0x00000000   Number         0  main.o ABSOLUTE
    _printf_flags                            0x00000000   Number         0  printf_stubs.o ABSOLUTE
    _printf_return_value                     0x00000000   Number         0  printf_stubs.o ABSOLUTE
    _printf_sizespec                         0x00000000   Number         0  printf_stubs.o ABSOLUTE
    _printf_widthprec                        0x00000000   Number         0  printf_stubs.o ABSOLUTE
    __ARM_exceptions_init                     - Undefined Weak Reference
    __alloca_initialize                       - Undefined Weak Reference
    __arm_preinit_                            - Undefined Weak Reference
    __cpp_initialize__aeabi_                  - Undefined Weak Reference
    __cxa_finalize                            - Undefined Weak Reference
    __sigvec_lookup                           - Undefined Weak Reference
    _atexit_init                              - Undefined Weak Reference
    _call_atexit_fns                          - Undefined Weak Reference
    _clock_init                               - Undefined Weak Reference
    _fp_trap_init                             - Undefined Weak Reference
    _fp_trap_shutdown                         - Undefined Weak Reference
    _get_lc_collate                           - Undefined Weak Reference
    _get_lc_monetary                          - Undefined Weak Reference
    _get_lc_time                              - Undefined Weak Reference
    _getenv_init                              - Undefined Weak Reference
    _handle_redirection                       - Undefined Weak Reference
    _init_alloc                               - Undefined Weak Reference
    _init_user_alloc                          - Undefined Weak Reference
    _initio                                   - Undefined Weak Reference
    _printf_mbtowc                            - Undefined Weak Reference
    _printf_truncate_signed                   - Undefined Weak Reference
    _printf_truncate_unsigned                 - Undefined Weak Reference
    _rand_init                                - Undefined Weak Reference
    _signal_finish                            - Undefined Weak Reference
    _signal_init                              - Undefined Weak Reference
    _terminate_alloc                          - Undefined Weak Reference
    _terminate_user_alloc                     - Undefined Weak Reference
    _terminateio                              - Undefined Weak Reference
    __Vectors_Size                           0x00000184   Number         0  startup_stm32f2xx.o ABSOLUTE
    __Vectors                                0x08008000   Data           4  startup_stm32f2xx.o(RESET)
    __Vectors_End                            0x08008184   Data           0  startup_stm32f2xx.o(RESET)
    __main                                   0x08008185   Thumb Code     8  __main.o(!!!main)
    __scatterload                            0x0800818d   Thumb Code     0  __scatter.o(!!!scatter)
    __scatterload_rt2                        0x0800818d   Thumb Code    44  __scatter.o(!!!scatter)
    __scatterload_rt2_thumb_only             0x0800818d   Thumb Code     0  __scatter.o(!!!scatter)
    __scatterload_null                       0x0800819b   Thumb Code     0  __scatter.o(!!!scatter)
    __decompress                             0x080081c1   Thumb Code    90  __dczerorl2.o(!!dczerorl2)
    __decompress1                            0x080081c1   Thumb Code     0  __dczerorl2.o(!!dczerorl2)
    __scatterload_zeroinit                   0x0800821d   Thumb Code    28  __scatter_zi.o(!!handler_zi)
    _printf_f                                0x08008239   Thumb Code     0  _printf_f.o(.ARM.Collect$$_printf_percent$$00000003)
    _printf_percent                          0x08008239   Thumb Code     0  _printf_percent.o(.ARM.Collect$$_printf_percent$$00000000)
    _printf_d                                0x0800823f   Thumb Code     0  _printf_d.o(.ARM.Collect$$_printf_percent$$00000009)
    _printf_u                                0x08008245   Thumb Code     0  _printf_u.o(.ARM.Collect$$_printf_percent$$0000000A)
    _printf_s                                0x0800824b   Thumb Code     0  _printf_s.o(.ARM.Collect$$_printf_percent$$00000014)
    _printf_percent_end                      0x08008251   Thumb Code     0  _printf_percent_end.o(.ARM.Collect$$_printf_percent$$00000017)
    __rt_lib_init                            0x08008255   Thumb Code     0  libinit.o(.ARM.Collect$$libinit$$00000000)
    __rt_lib_init_fp_1                       0x08008257   Thumb Code     0  libinit2.o(.ARM.Collect$$libinit$$00000002)
    __rt_lib_init_heap_1                     0x08008257   Thumb Code     0  libinit2.o(.ARM.Collect$$libinit$$0000000A)
    __rt_lib_init_lc_common                  0x08008257   Thumb Code     0  libinit2.o(.ARM.Collect$$libinit$$0000000F)
    __rt_lib_init_preinit_1                  0x08008257   Thumb Code     0  libinit2.o(.ARM.Collect$$libinit$$00000004)
    __rt_lib_init_rand_1                     0x08008257   Thumb Code     0  libinit2.o(.ARM.Collect$$libinit$$0000000E)
    __rt_lib_init_user_alloc_1               0x08008257   Thumb Code     0  libinit2.o(.ARM.Collect$$libinit$$0000000C)
    __rt_lib_init_lc_collate_1               0x0800825d   Thumb Code     0  libinit2.o(.ARM.Collect$$libinit$$00000011)
    __rt_lib_init_lc_ctype_2                 0x0800825d   Thumb Code     0  libinit2.o(.ARM.Collect$$libinit$$00000012)
    __rt_lib_init_lc_ctype_1                 0x08008269   Thumb Code     0  libinit2.o(.ARM.Collect$$libinit$$00000013)
    __rt_lib_init_lc_monetary_1              0x08008269   Thumb Code     0  libinit2.o(.ARM.Collect$$libinit$$00000015)
    __rt_lib_init_lc_numeric_2               0x08008269   Thumb Code     0  libinit2.o(.ARM.Collect$$libinit$$00000016)
    __rt_lib_init_alloca_1                   0x08008273   Thumb Code     0  libinit2.o(.ARM.Collect$$libinit$$0000002E)
    __rt_lib_init_argv_1                     0x08008273   Thumb Code     0  libinit2.o(.ARM.Collect$$libinit$$0000002C)
    __rt_lib_init_atexit_1                   0x08008273   Thumb Code     0  libinit2.o(.ARM.Collect$$libinit$$0000001B)
    __rt_lib_init_clock_1                    0x08008273   Thumb Code     0  libinit2.o(.ARM.Collect$$libinit$$00000021)
    __rt_lib_init_cpp_1                      0x08008273   Thumb Code     0  libinit2.o(.ARM.Collect$$libinit$$00000032)
    __rt_lib_init_exceptions_1               0x08008273   Thumb Code     0  libinit2.o(.ARM.Collect$$libinit$$00000030)
    __rt_lib_init_fp_trap_1                  0x08008273   Thumb Code     0  libinit2.o(.ARM.Collect$$libinit$$0000001F)
    __rt_lib_init_getenv_1                   0x08008273   Thumb Code     0  libinit2.o(.ARM.Collect$$libinit$$00000023)
    __rt_lib_init_lc_numeric_1               0x08008273   Thumb Code     0  libinit2.o(.ARM.Collect$$libinit$$00000017)
    __rt_lib_init_lc_time_1                  0x08008273   Thumb Code     0  libinit2.o(.ARM.Collect$$libinit$$00000019)
    __rt_lib_init_return                     0x08008273   Thumb Code     0  libinit2.o(.ARM.Collect$$libinit$$00000033)
    __rt_lib_init_signal_1                   0x08008273   Thumb Code     0  libinit2.o(.ARM.Collect$$libinit$$0000001D)
    __rt_lib_init_stdio_1                    0x08008273   Thumb Code     0  libinit2.o(.ARM.Collect$$libinit$$00000025)
    __rt_lib_shutdown                        0x08008275   Thumb Code     0  libshutdown.o(.ARM.Collect$$libshutdown$$00000000)
    __rt_lib_shutdown_cpp_1                  0x08008277   Thumb Code     0  libshutdown2.o(.ARM.Collect$$libshutdown$$00000002)
    __rt_lib_shutdown_fp_trap_1              0x08008277   Thumb Code     0  libshutdown2.o(.ARM.Collect$$libshutdown$$00000007)
    __rt_lib_shutdown_heap_1                 0x08008277   Thumb Code     0  libshutdown2.o(.ARM.Collect$$libshutdown$$0000000F)
    __rt_lib_shutdown_return                 0x08008277   Thumb Code     0  libshutdown2.o(.ARM.Collect$$libshutdown$$00000010)
    __rt_lib_shutdown_signal_1               0x08008277   Thumb Code     0  libshutdown2.o(.ARM.Collect$$libshutdown$$0000000A)
    __rt_lib_shutdown_stdio_1                0x08008277   Thumb Code     0  libshutdown2.o(.ARM.Collect$$libshutdown$$00000004)
    __rt_lib_shutdown_user_alloc_1           0x08008277   Thumb Code     0  libshutdown2.o(.ARM.Collect$$libshutdown$$0000000C)
    __rt_entry                               0x08008279   Thumb Code     0  __rtentry.o(.ARM.Collect$$rtentry$$00000000)
    __rt_entry_presh_1                       0x08008279   Thumb Code     0  __rtentry2.o(.ARM.Collect$$rtentry$$00000002)
    __rt_entry_sh                            0x08008279   Thumb Code     0  __rtentry4.o(.ARM.Collect$$rtentry$$00000004)
    __rt_entry_li                            0x0800827f   Thumb Code     0  __rtentry2.o(.ARM.Collect$$rtentry$$0000000A)
    __rt_entry_postsh_1                      0x0800827f   Thumb Code     0  __rtentry2.o(.ARM.Collect$$rtentry$$00000009)
    __rt_entry_main                          0x08008283   Thumb Code     0  __rtentry2.o(.ARM.Collect$$rtentry$$0000000D)
    __rt_entry_postli_1                      0x08008283   Thumb Code     0  __rtentry2.o(.ARM.Collect$$rtentry$$0000000C)
    __rt_exit                                0x0800828b   Thumb Code     0  rtexit.o(.ARM.Collect$$rtexit$$00000000)
    __rt_exit_ls                             0x0800828d   Thumb Code     0  rtexit2.o(.ARM.Collect$$rtexit$$00000003)
    __rt_exit_prels_1                        0x0800828d   Thumb Code     0  rtexit2.o(.ARM.Collect$$rtexit$$00000002)
    __rt_exit_exit                           0x08008291   Thumb Code     0  rtexit2.o(.ARM.Collect$$rtexit$$00000004)
    Led_HardwareInitialize                   0x08008299   Thumb Code   102  led.o(.text)
    Led_Initialize                           0x080082ff   Thumb Code    32  led.o(.text)
    Led_Tick100ms                            0x080083f7   Thumb Code    98  led.o(.text)
    Led_Tick10ms                             0x08008459   Thumb Code   222  led.o(.text)
    Led_HienThiDangNhap                      0x08008537   Thumb Code    20  led.o(.text)
    XuLyHamQuanTrong                         0x080085e9   Thumb Code    22  main.o(.text)
    main                                     0x0800863b   Thumb Code   216  main.o(.text)
    Buzz_Initialize                          0x08008721   Thumb Code    46  buzz.o(.text)
    Buzz_Tick                                0x0800874f   Thumb Code   100  buzz.o(.text)
    Beep                                     0x080087b3   Thumb Code    26  buzz.o(.text)
    Beeps                                    0x080087cd   Thumb Code    22  buzz.o(.text)
    Debug_Initialize                         0x080087f1   Thumb Code   222  debug.o(.text)
    DebugPut                                 0x080088cf   Thumb Code    28  debug.o(.text)
    DebugPuts                                0x080088eb   Thumb Code    32  debug.o(.text)
    DebugItoa                                0x0800890b   Thumb Code   182  debug.o(.text)
    DebugPrint                               0x080089c1   Thumb Code   276  debug.o(.text)
    Delayus                                  0x08008ae1   Thumb Code    30  utilities.o(.text)
    Delay                                    0x08008aff   Thumb Code    44  utilities.o(.text)
    Delay_ms                                 0x08008b2b   Thumb Code    24  utilities.o(.text)
    IntToString                              0x08008b43   Thumb Code   108  utilities.o(.text)
    HexToString                              0x08008baf   Thumb Code    68  utilities.o(.text)
    BufferCompare                            0x08008bf3   Thumb Code    66  utilities.o(.text)
    TimViTriKyTu                             0x08008c35   Thumb Code    50  utilities.o(.text)
    GetNumberFromString                      0x08008c67   Thumb Code    62  utilities.o(.text)
    GetHexNumberFromString                   0x08008ca5   Thumb Code   232  utilities.o(.text)
    TachDuLieu                               0x08008d8d   Thumb Code    92  utilities.o(.text)
    mem_set                                  0x08008de9   Thumb Code    20  utilities.o(.text)
    Str2int                                  0x08008dfd   Thumb Code    56  utilities.o(.text)
    GetChecksum                              0x08008e35   Thumb Code    30  utilities.o(.text)
    CopyParaToMem                            0x08008e53   Thumb Code    50  utilities.o(.text)
    SysTick_Handler                          0x08008e99   Thumb Code   326  interrupt.o(.text)
    EXTI9_5_IRQHandler                       0x08008fdf   Thumb Code    60  interrupt.o(.text)
    TIM2_IRQHandler                          0x0800901b   Thumb Code    64  interrupt.o(.text)
    TIM3_IRQHandler                          0x0800905b   Thumb Code    64  interrupt.o(.text)
    USART1_IRQHandler                        0x0800909b   Thumb Code    40  interrupt.o(.text)
    USART2_IRQHandler                        0x080090c3   Thumb Code    48  interrupt.o(.text)
    USART3_IRQHandler                        0x080090f3   Thumb Code    40  interrupt.o(.text)
    UART4_IRQHandler                         0x0800911b   Thumb Code    42  interrupt.o(.text)
    UART5_IRQHandler                         0x08009145   Thumb Code    42  interrupt.o(.text)
    CauHinh_MacDinh                          0x080091bd   Thumb Code   240  cauhinh.o(.text)
    CauHinh_DocCauHinh                       0x080092ed   Thumb Code    46  cauhinh.o(.text)
    CauHinh_Initialize                       0x0800931b   Thumb Code     8  cauhinh.o(.text)
    CauHinh_LuuCauHinh                       0x08009323   Thumb Code    60  cauhinh.o(.text)
    CauHinh_XuLyCaiDatAll                    0x0800962d   Thumb Code  1620  cauhinh.o(.text)
    CauHinh_XuLyCaiDat                       0x08009c81   Thumb Code   828  cauhinh.o(.text)
    CauHinh_CauHinhLaiBienSo                 0x08009fbd   Thumb Code    68  cauhinh.o(.text)
    TIM3_Initialize                          0x0800a069   Thumb Code   100  initsystem.o(.text)
    TIM2_Initialize                          0x0800a0cd   Thumb Code   104  initsystem.o(.text)
    SysTickConfig                            0x0800a251   Thumb Code    74  initsystem.o(.text)
    System_Initialize                        0x0800a29b   Thumb Code   132  initsystem.o(.text)
    KhoiTao                                  0x0800a359   Thumb Code    74  initsystem.o(.text)
    ExternalWatchdog_Initialize              0x0800a431   Thumb Code    48  watchdog.o(.text)
    Watchdog_Initialize                      0x0800a461   Thumb Code    38  watchdog.o(.text)
    Watchdog_Reset                           0x0800a487   Thumb Code     8  watchdog.o(.text)
    ResetExternalWatchDog                    0x0800a48f   Thumb Code    14  watchdog.o(.text)
    Watchdog_Tick                            0x0800a49d   Thumb Code     8  watchdog.o(.text)
    KhoaXe_Initialize                        0x0800a4dd   Thumb Code    12  tatdongco.o(.text)
    KhoaXe_Tick1s                            0x0800a4e9   Thumb Code    28  tatdongco.o(.text)
    KhoaXe_XuLyTatMayTuSMS                   0x0800a505   Thumb Code   130  tatdongco.o(.text)
    KhoaXe_TatMayTuServer                    0x0800a587   Thumb Code    24  tatdongco.o(.text)
    KhoaXe_XuLyBatMayTuSMS                   0x0800a59f   Thumb Code    56  tatdongco.o(.text)
    ADC_Initialize                           0x0800a669   Thumb Code   216  measurement.o(.text)
    Measure_TinhKm                           0x0800a741   Thumb Code   104  measurement.o(.text)
    XacDinhTrangThaiDiChuyenCuaXeQuaVCo      0x0800a7a9   Thumb Code    68  measurement.o(.text)
    MeasureSpeed                             0x0800a7ed   Thumb Code   126  measurement.o(.text)
    XacDinhTrangThaiDiChuyenCuaXeQuaGPS      0x0800a86b   Thumb Code    72  measurement.o(.text)
    ShowInputState                           0x0800a8b3   Thumb Code   150  measurement.o(.text)
    Xung_Initialize                          0x0800a949   Thumb Code   136  measurement.o(.text)
    Measurement_Initialize                   0x0800aa3f   Thumb Code   242  measurement.o(.text)
    GetCurrentSpeed                          0x0800ab31   Thumb Code    74  measurement.o(.text)
    GetVanTocGPS                             0x0800ab7b   Thumb Code    30  measurement.o(.text)
    GetVanTocCo                              0x0800ab99   Thumb Code    32  measurement.o(.text)
    GetTrangThaiHeThong                      0x0800abb9   Thumb Code   146  measurement.o(.text)
    GetTrangThaiDiChuyen                     0x0800ac4b   Thumb Code    20  measurement.o(.text)
    InputState                               0x0800ac5f   Thumb Code   120  measurement.o(.text)
    GiamSatTrangThaiCamBien                  0x0800acd7   Thumb Code    36  measurement.o(.text)
    Measure_DocKmTichLuy                     0x0800acfb   Thumb Code    68  measurement.o(.text)
    Measure_LuuKmTichLuy                     0x0800ad3f   Thumb Code    72  measurement.o(.text)
    Measure_Tick1000ms                       0x0800ad87   Thumb Code    66  measurement.o(.text)
    Config_ReceiveData                       0x0800ae2d   Thumb Code    46  configuration.o(.text)
    Config_Process                           0x0800af6d   Thumb Code   596  configuration.o(.text)
    OldData_Initialize                       0x0800b2dd   Thumb Code    26  olddataprocess.o(.text)
    OldData_Process                          0x0800b4a9   Thumb Code   198  olddataprocess.o(.text)
    OldData_Tick1s                           0x0800b56f   Thumb Code    86  olddataprocess.o(.text)
    OldDataDH_Process                        0x0800b5c5   Thumb Code   696  olddataprocess.o(.text)
    OldDataDH_Tick1s                         0x0800b87d   Thumb Code    90  olddataprocess.o(.text)
    OldData_ThoiGianGuiTinGanNhat            0x0800b90f   Thumb Code    82  olddataprocess.o(.text)
    OldData_ThoiGianGuiTinGanNhatDongHO      0x0800b961   Thumb Code    74  olddataprocess.o(.text)
    Hardware_CheckResetReason                0x0800ba49   Thumb Code   220  hardwaremanager.o(.text)
    Hardware_CheckClockSource                0x0800bb25   Thumb Code    50  hardwaremanager.o(.text)
    Hardware_XoaCoLoi                        0x0800bb57   Thumb Code   344  hardwaremanager.o(.text)
    Hardware_SystemReset                     0x0800bcaf   Thumb Code    68  hardwaremanager.o(.text)
    FLASH_If_Init                            0x0800bdbd   Thumb Code    14  flash_if.o(.text)
    FLASH_If_Erase                           0x0800be4d   Thumb Code    46  flash_if.o(.text)
    FLASH_If_Write                           0x0800be7b   Thumb Code    80  flash_if.o(.text)
    FLASH_If_GetWriteProtectionStatus        0x0800becb   Thumb Code    40  flash_if.o(.text)
    FLASH_If_DisableWriteProtection          0x0800bef3   Thumb Code    64  flash_if.o(.text)
    Luuthongtinupdatefimware                 0x0800bf55   Thumb Code   440  updatefimware.o(.text)
    BGT_GetFlashAddress                      0x0800c2c9   Thumb Code    88  bgt_data.o(.text)
    BGT_GhiThongTinHanhTrinh                 0x0800c3fd   Thumb Code   936  bgt_data.o(.text)
    BGT_GhiBanTinSOS                         0x0800c7a5   Thumb Code   400  bgt_data.o(.text)
    BGT_GhiVanTocTungGiay                    0x0800c935   Thumb Code   108  bgt_data.o(.text)
    BGT_GhiThongTinLamViecCuaLaiXe           0x0800c9a1   Thumb Code    64  bgt_data.o(.text)
    BGT_KiemTraThongTinLamViecCuaLaiXe       0x0800c9e1   Thumb Code    58  bgt_data.o(.text)
    BGT_DataTick100ms                        0x0800ca1b   Thumb Code    62  bgt_data.o(.text)
    BGT_KiemTraDuLieu                        0x0800ca59   Thumb Code    80  bgt_data.o(.text)
    Ghidulieudongho                          0x0800caa9   Thumb Code   120  bgt_data.o(.text)
    RFID_Initialize                          0x0800cc73   Thumb Code    12  bgt_rfid.o(.text)
    RFID_GuiTrangThaiDangNhap                0x0800cda1   Thumb Code   166  bgt_rfid.o(.text)
    RFID_Tick1s                              0x0800ce7d   Thumb Code   100  bgt_rfid.o(.text)
    RFID_ReceiveData                         0x0800cee1   Thumb Code   192  bgt_rfid.o(.text)
    RFID_Process                             0x0800d029   Thumb Code   470  bgt_rfid.o(.text)
    RFID_GetTrangThai                        0x0800d1ff   Thumb Code     8  bgt_rfid.o(.text)
    LaiXe_DocThongTinDangNhapCuaLaiXe        0x0800d2c5   Thumb Code    50  bgt_laixe.o(.text)
    LaiXe_Initialize                         0x0800d2f7   Thumb Code     8  bgt_laixe.o(.text)
    LaiXe_Tick1s                             0x0800d33b   Thumb Code    56  bgt_laixe.o(.text)
    LaiXe_LayTrangThaiDangNhap               0x0800d373   Thumb Code    30  bgt_laixe.o(.text)
    LaiXe_XuLyThoiGianDiChuyen               0x0800d391   Thumb Code   152  bgt_laixe.o(.text)
    LaiXe_KiemTraThongTinLaiXe               0x0800d429   Thumb Code    62  bgt_laixe.o(.text)
    BGT_LayViTriGhiThongTinLaiXe             0x0800d467   Thumb Code     4  bgt_laixe.o(.text)
    LaiXe_XuLyDangNhap                       0x0800d46b   Thumb Code   468  bgt_laixe.o(.text)
    LaiXe_ThucHienChuyenNgay                 0x0800d63f   Thumb Code   294  bgt_laixe.o(.text)
    LaiXe_DoiLaiTuTinNhan                    0x0800d765   Thumb Code   232  bgt_laixe.o(.text)
    LaiXe_CauHinhThoiGianLaiXeLienTuc        0x0800d84d   Thumb Code    48  bgt_laixe.o(.text)
    Alarm_Tick100ms                          0x0800d995   Thumb Code    32  bgt_alarm.o(.text)
    BGT_Initialize                           0x0800d9e1   Thumb Code     8  bgt_process.o(.text)
    BGT_Tick100ms                            0x0800da2d   Thumb Code    94  bgt_process.o(.text)
    BGT_Tick200ms                            0x0800daf9   Thumb Code    32  bgt_process.o(.text)
    BGT_SendString                           0x0800db19   Thumb Code    36  bgt_process.o(.text)
    BGT_ProcessCommand                       0x0800e709   Thumb Code   266  bgt_command.o(.text)
    HP2010_Initialize                        0x0800ea07   Thumb Code    16  hp2010.o(.text)
    HP2010_NhanDuLieu                        0x0800ea17   Thumb Code   222  hp2010.o(.text)
    HP2010_Tick1s                            0x0800eaf5   Thumb Code    94  hp2010.o(.text)
    HP2010_Process                           0x0800edaf   Thumb Code    20  hp2010.o(.text)
    HP2010_LayTrangThaiMatKetNoiDongHo       0x0800edc3   Thumb Code    18  hp2010.o(.text)
    HP2010_LayTrangThaiCoKhach               0x0800edd5   Thumb Code     8  hp2010.o(.text)
    HP2010_LayVanTocTuDongHo                 0x0800eddd   Thumb Code     8  hp2010.o(.text)
    HP2010_GuiDiaChiXuongDongHo              0x0800ee2b   Thumb Code   996  hp2010.o(.text)
    CopyGPSSentence                          0x0800f215   Thumb Code    56  gps_process.o(.text)
    GPS_ResetData                            0x0800f295   Thumb Code    38  gps_process.o(.text)
    GPS_ProcessData                          0x0800f6e7   Thumb Code    26  gps_process.o(.text)
    GPS_GetLongitude                         0x0800f701   Thumb Code    16  gps_process.o(.text)
    GPS_GetLatitude                          0x0800f711   Thumb Code    16  gps_process.o(.text)
    GPS_GetSpeed                             0x0800f721   Thumb Code    16  gps_process.o(.text)
    GPS_GetCourse                            0x0800f731   Thumb Code    16  gps_process.o(.text)
    GPS_GetDateTime                          0x0800f741   Thumb Code    66  gps_process.o(.text)
    GPS_GetValid                             0x0800f783   Thumb Code     6  gps_process.o(.text)
    GPS_SetDebugMode                         0x0800f789   Thumb Code    46  gps_process.o(.text)
    GPS_SoftwareInitialize                   0x0800f7b7   Thumb Code    34  gps_process.o(.text)
    GPS_GetWorkingState                      0x0800f7d9   Thumb Code     6  gps_process.o(.text)
    GPS_Manage                               0x0800f7df   Thumb Code    78  gps_process.o(.text)
    GPS_Control                              0x0800f9f1   Thumb Code    36  gps_hardware.o(.text)
    GPS_ResetStep                            0x0800fa15   Thumb Code    30  gps_hardware.o(.text)
    GPS_Initialize                           0x0800fa33   Thumb Code    22  gps_hardware.o(.text)
    GPS_ReceiveData                          0x0800fa49   Thumb Code   332  gps_hardware.o(.text)
    GPS_Process                              0x0800fb95   Thumb Code    38  gps_hardware.o(.text)
    M95_PowerOn                              0x0800fc49   Thumb Code   112  gsm_m95.o(.text)
    M95_GSMConfig                            0x0800fcb9   Thumb Code   608  gsm_m95.o(.text)
    M95_Initialize                           0x0800ff19   Thumb Code    58  gsm_m95.o(.text)
    SMS_Initialize                           0x080100b1   Thumb Code     8  gsm_sms.o(.text)
    SMS_SendQueue                            0x080101c7   Thumb Code   208  gsm_sms.o(.text)
    SMS_GuiTinNhan                           0x08010297   Thumb Code   198  gsm_sms.o(.text)
    SMSCmd                                   0x0801035d   Thumb Code    86  gsm_sms.o(.text)
    SMS_NhanTin                              0x080103b3   Thumb Code   578  gsm_sms.o(.text)
    SMS_TachSoDienThoai                      0x080105f5   Thumb Code   140  gsm_sms.o(.text)
    SMS_ProcessCommand                       0x08010681   Thumb Code   980  gsm_sms.o(.text)
    SMS_Process                              0x08010a55   Thumb Code   188  gsm_sms.o(.text)
    UpcaseData                               0x08010b11   Thumb Code    40  gsm_sms.o(.text)
    M95_GPRS_Initialize                      0x08010b49   Thumb Code    28  gsm_gprs.o(.text)
    GPRS_TimDuLieu                           0x08010b65   Thumb Code   262  gsm_gprs.o(.text)
    ThucHienLenhATCommand                    0x08010c6b   Thumb Code    60  gsm_gprs.o(.text)
    RunATInQueue                             0x08010ca7   Thumb Code    68  gsm_gprs.o(.text)
    XuLyDapMay                               0x08010ceb   Thumb Code    62  gsm_gprs.o(.text)
    GSM_ThayDoiCheDo                         0x08010d29   Thumb Code    40  gsm_gprs.o(.text)
    M95_ResetStep                            0x08010d51   Thumb Code   154  gsm_gprs.o(.text)
    GSM_Tick100ms                            0x08010deb   Thumb Code  1124  gsm_gprs.o(.text)
    GPRS_Reconnect                           0x0801124f   Thumb Code    26  gsm_gprs.o(.text)
    M95_GPRSConfig                           0x08011269   Thumb Code   650  gsm_gprs.o(.text)
    GSM_ProcessInitialize                    0x08011509   Thumb Code     2  gsm_process.o(.text)
    GSM_GetIMEI                              0x0801150b   Thumb Code   226  gsm_process.o(.text)
    Message_Initialize                       0x08011621   Thumb Code    98  gsm_message.o(.text)
    GPRS_KiemTraBoNho                        0x0801169b   Thumb Code    70  gsm_message.o(.text)
    Message_PacketKQ                         0x08011a99   Thumb Code   246  gsm_message.o(.text)
    Message_Tick100ms                        0x08011ca1   Thumb Code   292  gsm_message.o(.text)
    Message_GuiThongTinThietBi               0x08011dc5   Thumb Code   516  gsm_message.o(.text)
    Message_Tick1s                           0x08011fc9   Thumb Code    38  gsm_message.o(.text)
    Message_GuiTinNhanh                      0x08011fef   Thumb Code    36  gsm_message.o(.text)
    Message_DocIdBanTinDongHoDaGui           0x08012013   Thumb Code    18  gsm_message.o(.text)
    Message_DocIdBanTinDongHoDaNhan          0x08012025   Thumb Code    18  gsm_message.o(.text)
    Message_DocThongTinDaGuiTin              0x08012037   Thumb Code   144  gsm_message.o(.text)
    Message_LuuThongTinDaGuiTin              0x080120c7   Thumb Code   136  gsm_message.o(.text)
    Message_LuuThongTinDaGuiTinDongHo        0x0801214f   Thumb Code   106  gsm_message.o(.text)
    Message_LuuThongTinDaNhanTinDongHo       0x080121b9   Thumb Code   106  gsm_message.o(.text)
    Message_DocThoiGianDaGuiTinDongHo        0x08012223   Thumb Code    88  gsm_message.o(.text)
    Message_DocThoiGianDaNhanTinDongHo       0x0801227b   Thumb Code    88  gsm_message.o(.text)
    Message_PacketTK                         0x080122d3   Thumb Code   342  gsm_message.o(.text)
    Message_PacketSMS                        0x08012429   Thumb Code   246  gsm_message.o(.text)
    Message_GuiTinHieuSOS                    0x0801251f   Thumb Code   484  gsm_message.o(.text)
    Message_GuiThongTinLaiXe                 0x08012703   Thumb Code   654  gsm_message.o(.text)
    Message_GuiVanTocTungGiay                0x08012991   Thumb Code   348  gsm_message.o(.text)
    Message_GuiDuLieuDongHo                  0x08012aed   Thumb Code   492  gsm_message.o(.text)
    Message_GuiTinDongHo                     0x08012cd9   Thumb Code   264  gsm_message.o(.text)
    Message_GuiDuLieuCu                      0x08012de1   Thumb Code  1564  gsm_message.o(.text)
    Message_GuiDuLieuCuSOS                   0x080133fd   Thumb Code   984  gsm_message.o(.text)
    Message_GuiDuLieuCuDongHo                0x080137d5   Thumb Code   290  gsm_message.o(.text)
    Message_GuiThongTinQuaTocDo              0x080138f7   Thumb Code   556  gsm_message.o(.text)
    GSM_Initialize                           0x08013d17   Thumb Code    26  gsm_hardware.o(.text)
    GSM_ReceiveData                          0x08013d31   Thumb Code    58  gsm_hardware.o(.text)
    GSM_SendByte                             0x08013d6b   Thumb Code    28  gsm_hardware.o(.text)
    GSM_SendBytes                            0x08013d87   Thumb Code    28  gsm_hardware.o(.text)
    GSM_SendATs                              0x08013da3   Thumb Code    40  gsm_hardware.o(.text)
    GSM_XoaBoDemNhan                         0x08013dcb   Thumb Code    28  gsm_hardware.o(.text)
    GSM_SendCommand                          0x08013de7   Thumb Code   220  gsm_hardware.o(.text)
    GSM_XuLyCuocGoi                          0x08013ec3   Thumb Code    94  gsm_hardware.o(.text)
    GSM_KiemTraKetNoiDenModule               0x08013f21   Thumb Code   208  gsm_hardware.o(.text)
    GSM_XuLyDuLieu                           0x08013ff1   Thumb Code   444  gsm_hardware.o(.text)
    GSM_DebugMode                            0x080141ad   Thumb Code     6  gsm_hardware.o(.text)
    GSM_GiamSatTrangThaiSong                 0x080141b3   Thumb Code    64  gsm_hardware.o(.text)
    Server_XuLyBanTinNhanDuoc                0x08014e99   Thumb Code   700  gsm_serverprocess.o(.text)
    rtc_settime                              0x08015289   Thumb Code    72  rtc.o(.text)
    RTC_Config                               0x08015335   Thumb Code   112  rtc.o(.text)
    RTC_Initialize                           0x080153a5   Thumb Code    76  rtc.o(.text)
    rtc_gettime                              0x080153f1   Thumb Code    64  rtc.o(.text)
    RTC_CapNhatThoiGianTuServer              0x08015431   Thumb Code    90  rtc.o(.text)
    RTC_CapNhatThoiGianLapDat                0x0801548b   Thumb Code   102  rtc.o(.text)
    RTC_CapNhatThoiGianChinhSua              0x080154f1   Thumb Code   102  rtc.o(.text)
    RTC_KiemTraThoiGian                      0x08015557   Thumb Code    70  rtc.o(.text)
    RTC_ProcessSystem                        0x0801559d   Thumb Code   132  rtc.o(.text)
    RTC_CapNhatThoiGianTuGPS                 0x08015621   Thumb Code   128  rtc.o(.text)
    RTC_LayThoiGianHeThong                   0x080156a1   Thumb Code     8  rtc.o(.text)
    RTC_ConvertDateToUnix                    0x080156a9   Thumb Code   344  rtc.o(.text)
    RTC_ConvertUnixToDate                    0x08015801   Thumb Code    44  rtc.o(.text)
    FRAM_ReadBytes                           0x0801586f   Thumb Code    74  fram.o(.text)
    FRAM_WriteBytes                          0x080158d7   Thumb Code    76  fram.o(.text)
    FRAM_Initialize                          0x08015a6b   Thumb Code    52  fram.o(.text)
    FRAM_ReadLong                            0x08015a9f   Thumb Code    86  fram.o(.text)
    FRAM_WriteLong                           0x08015af5   Thumb Code    86  fram.o(.text)
    FRAM_ReadInt                             0x08015b4b   Thumb Code    74  fram.o(.text)
    FRAM_WriteInt                            0x08015b95   Thumb Code    68  fram.o(.text)
    FRAM_ReadByte                            0x08015bd9   Thumb Code    56  fram.o(.text)
    FRAM_WriteByte                           0x08015c11   Thumb Code   102  fram.o(.text)
    FRAM_ReadDateTime                        0x08015c77   Thumb Code    98  fram.o(.text)
    FRAM_WriteDateTime                       0x08015cd9   Thumb Code    92  fram.o(.text)
    FRAM_ReadFloat                           0x08015d35   Thumb Code    90  fram.o(.text)
    FRAM_XoaChip                             0x08015d8f   Thumb Code    54  fram.o(.text)
    FRAM_GetTrangThai                        0x08015dc5   Thumb Code     6  fram.o(.text)
    FLASH_Initialize                         0x08015fb9   Thumb Code    58  dataflash.o(.text)
    FLASH_ReadBytes                          0x08015ff3   Thumb Code    82  dataflash.o(.text)
    WaitWriteInProcess                       0x08016045   Thumb Code    62  dataflash.o(.text)
    FLASH_XoaSector                          0x08016083   Thumb Code    90  dataflash.o(.text)
    FLASH_WritePage                          0x080160dd   Thumb Code    94  dataflash.o(.text)
    FLASH_WriteBytes                         0x0801613b   Thumb Code    94  dataflash.o(.text)
    SetCheDoMacDinh                          0x08016199   Thumb Code    26  dataflash.o(.text)
    ReadStatusFlash                          0x080161b3   Thumb Code   106  dataflash.o(.text)
    FLASH_XoaToanBoChip                      0x0801621d   Thumb Code    78  dataflash.o(.text)
    FLASH_GetTrangThai                       0x0801626b   Thumb Code     6  dataflash.o(.text)
    DES_keyschedule_enc                      0x0801648b   Thumb Code    16  des.o(.text)
    DES_keyschedule_dec                      0x0801649b   Thumb Code    16  des.o(.text)
    DES_encrypt                              0x0801664d   Thumb Code   104  des.o(.text)
    Base64_Initialize                        0x080166ed   Thumb Code    24  base64.o(.text)
    Base64_Decode_Len                        0x08016705   Thumb Code    42  base64.o(.text)
    Base64_Decode                            0x0801672f   Thumb Code   226  base64.o(.text)
    Base64_Encode_Len                        0x08016811   Thumb Code    16  base64.o(.text)
    Base64_Encode                            0x08016821   Thumb Code   198  base64.o(.text)
    MaHoa_Initialize                         0x080168f5   Thumb Code    26  mahoa.o(.text)
    MaHoa_GetConnectionKey                   0x0801690f   Thumb Code    26  mahoa.o(.text)
    MaHoa_EncryptString                      0x08016929   Thumb Code   200  mahoa.o(.text)
    AmThanh_Ctrl                             0x08016a05   Thumb Code    46  amthanh.o(.text)
    AmThanh_Initialize                       0x08016a6b   Thumb Code    12  amthanh.o(.text)
    AmThanh_Tick1ms                          0x08016a77   Thumb Code   124  amthanh.o(.text)
    AmThanh_PhatAmThanh                      0x08016af3   Thumb Code    62  amthanh.o(.text)
    AmThanh_KetThuc                          0x08016b31   Thumb Code    26  amthanh.o(.text)
    NhienLieu_Initialize                     0x08016bad   Thumb Code    12  nhienlieu.o(.text)
    NhienLieu_Tick1s                         0x08016c61   Thumb Code     8  nhienlieu.o(.text)
    NhienLieu_Tick10ms                       0x08016c69   Thumb Code     8  nhienlieu.o(.text)
    NVIC_PriorityGroupConfig                 0x08016cb1   Thumb Code    10  misc.o(.text)
    NVIC_Init                                0x08016cbb   Thumb Code   106  misc.o(.text)
    NVIC_SetVectorTable                      0x08016d25   Thumb Code    14  misc.o(.text)
    NVIC_SystemLPConfig                      0x08016d33   Thumb Code    34  misc.o(.text)
    SysTick_CLKSourceConfig                  0x08016d55   Thumb Code    40  misc.o(.text)
    ADC_DeInit                               0x08016d91   Thumb Code    22  stm32f2xx_adc.o(.text)
    ADC_Init                                 0x08016da7   Thumb Code    74  stm32f2xx_adc.o(.text)
    ADC_StructInit                           0x08016df1   Thumb Code    20  stm32f2xx_adc.o(.text)
    ADC_CommonInit                           0x08016e05   Thumb Code    34  stm32f2xx_adc.o(.text)
    ADC_CommonStructInit                     0x08016e27   Thumb Code    12  stm32f2xx_adc.o(.text)
    ADC_Cmd                                  0x08016e33   Thumb Code    22  stm32f2xx_adc.o(.text)
    ADC_AnalogWatchdogCmd                    0x08016e49   Thumb Code    16  stm32f2xx_adc.o(.text)
    ADC_AnalogWatchdogThresholdsConfig       0x08016e59   Thumb Code     6  stm32f2xx_adc.o(.text)
    ADC_AnalogWatchdogSingleChannelConfig    0x08016e5f   Thumb Code    16  stm32f2xx_adc.o(.text)
    ADC_TempSensorVrefintCmd                 0x08016e6f   Thumb Code    34  stm32f2xx_adc.o(.text)
    ADC_VBATCmd                              0x08016e91   Thumb Code    34  stm32f2xx_adc.o(.text)
    ADC_RegularChannelConfig                 0x08016eb3   Thumb Code   184  stm32f2xx_adc.o(.text)
    ADC_SoftwareStartConv                    0x08016f6b   Thumb Code    10  stm32f2xx_adc.o(.text)
    ADC_GetSoftwareStartConvStatus           0x08016f75   Thumb Code    20  stm32f2xx_adc.o(.text)
    ADC_EOCOnEachRegularChannelCmd           0x08016f89   Thumb Code    22  stm32f2xx_adc.o(.text)
    ADC_ContinuousModeCmd                    0x08016f9f   Thumb Code    22  stm32f2xx_adc.o(.text)
    ADC_DiscModeChannelCountConfig           0x08016fb5   Thumb Code    24  stm32f2xx_adc.o(.text)
    ADC_DiscModeCmd                          0x08016fcd   Thumb Code    22  stm32f2xx_adc.o(.text)
    ADC_GetConversionValue                   0x08016fe3   Thumb Code     8  stm32f2xx_adc.o(.text)
    ADC_GetMultiModeConversionValue          0x08016feb   Thumb Code     8  stm32f2xx_adc.o(.text)
    ADC_DMACmd                               0x08016ff3   Thumb Code    22  stm32f2xx_adc.o(.text)
    ADC_DMARequestAfterLastTransferCmd       0x08017009   Thumb Code    22  stm32f2xx_adc.o(.text)
    ADC_MultiModeDMARequestAfterLastTransferCmd 0x0801701f   Thumb Code    34  stm32f2xx_adc.o(.text)
    ADC_InjectedChannelConfig                0x08017041   Thumb Code   130  stm32f2xx_adc.o(.text)
    ADC_InjectedSequencerLengthConfig        0x080170c3   Thumb Code    24  stm32f2xx_adc.o(.text)
    ADC_SetInjectedOffset                    0x080170db   Thumb Code    20  stm32f2xx_adc.o(.text)
    ADC_ExternalTrigInjectedConvConfig       0x080170ef   Thumb Code    16  stm32f2xx_adc.o(.text)
    ADC_ExternalTrigInjectedConvEdgeConfig   0x080170ff   Thumb Code    16  stm32f2xx_adc.o(.text)
    ADC_SoftwareStartInjectedConv            0x0801710f   Thumb Code    10  stm32f2xx_adc.o(.text)
    ADC_GetSoftwareStartInjectedConvCmdStatus 0x08017119   Thumb Code    20  stm32f2xx_adc.o(.text)
    ADC_AutoInjectedConvCmd                  0x0801712d   Thumb Code    22  stm32f2xx_adc.o(.text)
    ADC_InjectedDiscModeCmd                  0x08017143   Thumb Code    22  stm32f2xx_adc.o(.text)
    ADC_GetInjectedConversionValue           0x08017159   Thumb Code    28  stm32f2xx_adc.o(.text)
    ADC_ITConfig                             0x08017175   Thumb Code    56  stm32f2xx_adc.o(.text)
    ADC_GetFlagStatus                        0x080171ad   Thumb Code    18  stm32f2xx_adc.o(.text)
    ADC_ClearFlag                            0x080171bf   Thumb Code     6  stm32f2xx_adc.o(.text)
    ADC_GetITStatus                          0x080171c5   Thumb Code    38  stm32f2xx_adc.o(.text)
    ADC_ClearITPendingBit                    0x080171eb   Thumb Code    10  stm32f2xx_adc.o(.text)
    DMA_DeInit                               0x080171f5   Thumb Code   324  stm32f2xx_dma.o(.text)
    DMA_Init                                 0x08017339   Thumb Code    82  stm32f2xx_dma.o(.text)
    DMA_StructInit                           0x0801738b   Thumb Code    34  stm32f2xx_dma.o(.text)
    DMA_Cmd                                  0x080173ad   Thumb Code    22  stm32f2xx_dma.o(.text)
    DMA_PeriphIncOffsetSizeConfig            0x080173c3   Thumb Code    22  stm32f2xx_dma.o(.text)
    DMA_FlowControllerConfig                 0x080173d9   Thumb Code    22  stm32f2xx_dma.o(.text)
    DMA_SetCurrDataCounter                   0x080173ef   Thumb Code     4  stm32f2xx_dma.o(.text)
    DMA_GetCurrDataCounter                   0x080173f3   Thumb Code     8  stm32f2xx_dma.o(.text)
    DMA_DoubleBufferModeConfig               0x080173fb   Thumb Code    24  stm32f2xx_dma.o(.text)
    DMA_DoubleBufferModeCmd                  0x08017413   Thumb Code    22  stm32f2xx_dma.o(.text)
    DMA_MemoryTargetConfig                   0x08017429   Thumb Code    10  stm32f2xx_dma.o(.text)
    DMA_GetCurrentMemoryTarget               0x08017433   Thumb Code    20  stm32f2xx_dma.o(.text)
    DMA_GetCmdStatus                         0x08017447   Thumb Code    20  stm32f2xx_dma.o(.text)
    DMA_GetFIFOStatus                        0x0801745b   Thumb Code    12  stm32f2xx_dma.o(.text)
    DMA_GetFlagStatus                        0x08017467   Thumb Code    56  stm32f2xx_dma.o(.text)
    DMA_ClearFlag                            0x0801749f   Thumb Code    40  stm32f2xx_dma.o(.text)
    DMA_ITConfig                             0x080174c7   Thumb Code    58  stm32f2xx_dma.o(.text)
    DMA_GetITStatus                          0x08017501   Thumb Code    84  stm32f2xx_dma.o(.text)
    DMA_ClearITPendingBit                    0x08017555   Thumb Code    40  stm32f2xx_dma.o(.text)
    EXTI_DeInit                              0x0801759d   Thumb Code    28  stm32f2xx_exti.o(.text)
    EXTI_Init                                0x080175b9   Thumb Code   142  stm32f2xx_exti.o(.text)
    EXTI_StructInit                          0x08017647   Thumb Code    16  stm32f2xx_exti.o(.text)
    EXTI_GenerateSWInterrupt                 0x08017657   Thumb Code    16  stm32f2xx_exti.o(.text)
    EXTI_GetFlagStatus                       0x08017667   Thumb Code    22  stm32f2xx_exti.o(.text)
    EXTI_ClearFlag                           0x0801767d   Thumb Code     8  stm32f2xx_exti.o(.text)
    EXTI_GetITStatus                         0x08017685   Thumb Code    34  stm32f2xx_exti.o(.text)
    EXTI_ClearITPendingBit                   0x080176a7   Thumb Code     8  stm32f2xx_exti.o(.text)
    FLASH_SetLatency                         0x080176b9   Thumb Code     6  stm32f2xx_flash.o(.text)
    FLASH_PrefetchBufferCmd                  0x080176bf   Thumb Code    30  stm32f2xx_flash.o(.text)
    FLASH_InstructionCacheCmd                0x080176dd   Thumb Code    30  stm32f2xx_flash.o(.text)
    FLASH_DataCacheCmd                       0x080176fb   Thumb Code    30  stm32f2xx_flash.o(.text)
    FLASH_InstructionCacheReset              0x08017719   Thumb Code    14  stm32f2xx_flash.o(.text)
    FLASH_DataCacheReset                     0x08017727   Thumb Code    14  stm32f2xx_flash.o(.text)
    FLASH_Unlock                             0x08017735   Thumb Code    26  stm32f2xx_flash.o(.text)
    FLASH_Lock                               0x0801774f   Thumb Code    18  stm32f2xx_flash.o(.text)
    FLASH_GetStatus                          0x08017761   Thumb Code    74  stm32f2xx_flash.o(.text)
    FLASH_WaitForLastOperation               0x080177ab   Thumb Code    34  stm32f2xx_flash.o(.text)
    FLASH_EraseSector                        0x080177cd   Thumb Code   140  stm32f2xx_flash.o(.text)
    FLASH_EraseAllSectors                    0x08017859   Thumb Code   112  stm32f2xx_flash.o(.text)
    FLASH_ProgramDoubleWord                  0x080178c9   Thumb Code    86  stm32f2xx_flash.o(.text)
    FLASH_ProgramWord                        0x0801791f   Thumb Code    82  stm32f2xx_flash.o(.text)
    FLASH_ProgramHalfWord                    0x08017971   Thumb Code    82  stm32f2xx_flash.o(.text)
    FLASH_ProgramByte                        0x080179c3   Thumb Code    78  stm32f2xx_flash.o(.text)
    FLASH_OB_Unlock                          0x08017a11   Thumb Code    26  stm32f2xx_flash.o(.text)
    FLASH_OB_Lock                            0x08017a2b   Thumb Code    18  stm32f2xx_flash.o(.text)
    FLASH_OB_WRPConfig                       0x08017a3d   Thumb Code    54  stm32f2xx_flash.o(.text)
    FLASH_OB_RDPConfig                       0x08017a73   Thumb Code    24  stm32f2xx_flash.o(.text)
    FLASH_OB_UserConfig                      0x08017a8b   Thumb Code    68  stm32f2xx_flash.o(.text)
    FLASH_OB_BORConfig                       0x08017acf   Thumb Code    22  stm32f2xx_flash.o(.text)
    FLASH_OB_Launch                          0x08017ae5   Thumb Code    26  stm32f2xx_flash.o(.text)
    FLASH_OB_GetUser                         0x08017aff   Thumb Code    10  stm32f2xx_flash.o(.text)
    FLASH_OB_GetWRP                          0x08017b09   Thumb Code     8  stm32f2xx_flash.o(.text)
    FLASH_OB_GetRDP                          0x08017b11   Thumb Code    20  stm32f2xx_flash.o(.text)
    FLASH_OB_GetBOR                          0x08017b25   Thumb Code    10  stm32f2xx_flash.o(.text)
    FLASH_ITConfig                           0x08017b2f   Thumb Code    34  stm32f2xx_flash.o(.text)
    FLASH_GetFlagStatus                      0x08017b51   Thumb Code    22  stm32f2xx_flash.o(.text)
    FLASH_ClearFlag                          0x08017b67   Thumb Code     8  stm32f2xx_flash.o(.text)
    GPIO_DeInit                              0x08017b75   Thumb Code   220  stm32f2xx_gpio.o(.text)
    GPIO_Init                                0x08017c51   Thumb Code   144  stm32f2xx_gpio.o(.text)
    GPIO_StructInit                          0x08017ce1   Thumb Code    18  stm32f2xx_gpio.o(.text)
    GPIO_PinLockConfig                       0x08017cf3   Thumb Code    34  stm32f2xx_gpio.o(.text)
    GPIO_ReadInputDataBit                    0x08017d15   Thumb Code    18  stm32f2xx_gpio.o(.text)
    GPIO_ReadInputData                       0x08017d27   Thumb Code     8  stm32f2xx_gpio.o(.text)
    GPIO_ReadOutputDataBit                   0x08017d2f   Thumb Code    18  stm32f2xx_gpio.o(.text)
    GPIO_ReadOutputData                      0x08017d41   Thumb Code     8  stm32f2xx_gpio.o(.text)
    GPIO_SetBits                             0x08017d49   Thumb Code     4  stm32f2xx_gpio.o(.text)
    GPIO_ResetBits                           0x08017d4d   Thumb Code     4  stm32f2xx_gpio.o(.text)
    GPIO_WriteBit                            0x08017d51   Thumb Code    10  stm32f2xx_gpio.o(.text)
    GPIO_Write                               0x08017d5b   Thumb Code     4  stm32f2xx_gpio.o(.text)
    GPIO_ToggleBits                          0x08017d5f   Thumb Code     8  stm32f2xx_gpio.o(.text)
    GPIO_PinAFConfig                         0x08017d67   Thumb Code    70  stm32f2xx_gpio.o(.text)
    IWDG_WriteAccessCmd                      0x08017dd1   Thumb Code     6  stm32f2xx_iwdg.o(.text)
    IWDG_SetPrescaler                        0x08017dd7   Thumb Code     6  stm32f2xx_iwdg.o(.text)
    IWDG_SetReload                           0x08017ddd   Thumb Code     6  stm32f2xx_iwdg.o(.text)
    IWDG_ReloadCounter                       0x08017de3   Thumb Code    10  stm32f2xx_iwdg.o(.text)
    IWDG_Enable                              0x08017ded   Thumb Code    10  stm32f2xx_iwdg.o(.text)
    IWDG_GetFlagStatus                       0x08017df7   Thumb Code    20  stm32f2xx_iwdg.o(.text)
    PWR_DeInit                               0x08017e11   Thumb Code    22  stm32f2xx_pwr.o(.text)
    PWR_BackupAccessCmd                      0x08017e27   Thumb Code     6  stm32f2xx_pwr.o(.text)
    PWR_PVDLevelConfig                       0x08017e2d   Thumb Code    18  stm32f2xx_pwr.o(.text)
    PWR_PVDCmd                               0x08017e3f   Thumb Code     6  stm32f2xx_pwr.o(.text)
    PWR_WakeUpPinCmd                         0x08017e45   Thumb Code     8  stm32f2xx_pwr.o(.text)
    PWR_BackupRegulatorCmd                   0x08017e4d   Thumb Code     8  stm32f2xx_pwr.o(.text)
    PWR_FlashPowerDownCmd                    0x08017e55   Thumb Code     6  stm32f2xx_pwr.o(.text)
    PWR_EnterSTOPMode                        0x08017e5b   Thumb Code    54  stm32f2xx_pwr.o(.text)
    PWR_EnterSTANDBYMode                     0x08017e91   Thumb Code    42  stm32f2xx_pwr.o(.text)
    PWR_GetFlagStatus                        0x08017ebb   Thumb Code    20  stm32f2xx_pwr.o(.text)
    PWR_ClearFlag                            0x08017ecf   Thumb Code    14  stm32f2xx_pwr.o(.text)
    RCC_DeInit                               0x08017ee9   Thumb Code    60  stm32f2xx_rcc.o(.text)
    RCC_HSEConfig                            0x08017f25   Thumb Code    14  stm32f2xx_rcc.o(.text)
    RCC_GetFlagStatus                        0x08017f33   Thumb Code    60  stm32f2xx_rcc.o(.text)
    RCC_WaitForHSEStartUp                    0x08017f6f   Thumb Code    56  stm32f2xx_rcc.o(.text)
    RCC_AdjustHSICalibrationValue            0x08017fa7   Thumb Code    20  stm32f2xx_rcc.o(.text)
    RCC_HSICmd                               0x08017fbb   Thumb Code     6  stm32f2xx_rcc.o(.text)
    RCC_LSEConfig                            0x08017fc1   Thumb Code    46  stm32f2xx_rcc.o(.text)
    RCC_LSICmd                               0x08017fef   Thumb Code     6  stm32f2xx_rcc.o(.text)
    RCC_PLLConfig                            0x08017ff5   Thumb Code    32  stm32f2xx_rcc.o(.text)
    RCC_PLLCmd                               0x08018015   Thumb Code     6  stm32f2xx_rcc.o(.text)
    RCC_PLLI2SConfig                         0x0801801b   Thumb Code    14  stm32f2xx_rcc.o(.text)
    RCC_PLLI2SCmd                            0x08018029   Thumb Code     6  stm32f2xx_rcc.o(.text)
    RCC_ClockSecuritySystemCmd               0x0801802f   Thumb Code     6  stm32f2xx_rcc.o(.text)
    RCC_MCO1Config                           0x08018035   Thumb Code    28  stm32f2xx_rcc.o(.text)
    RCC_MCO2Config                           0x08018051   Thumb Code    28  stm32f2xx_rcc.o(.text)
    RCC_SYSCLKConfig                         0x0801806d   Thumb Code    20  stm32f2xx_rcc.o(.text)
    RCC_GetSYSCLKSource                      0x08018081   Thumb Code    12  stm32f2xx_rcc.o(.text)
    RCC_HCLKConfig                           0x0801808d   Thumb Code    20  stm32f2xx_rcc.o(.text)
    RCC_PCLK1Config                          0x080180a1   Thumb Code    20  stm32f2xx_rcc.o(.text)
    RCC_PCLK2Config                          0x080180b5   Thumb Code    22  stm32f2xx_rcc.o(.text)
    RCC_GetClocksFreq                        0x080180cb   Thumb Code   222  stm32f2xx_rcc.o(.text)
    RCC_RTCCLKConfig                         0x080181a9   Thumb Code    54  stm32f2xx_rcc.o(.text)
    RCC_RTCCLKCmd                            0x080181df   Thumb Code     8  stm32f2xx_rcc.o(.text)
    RCC_BackupResetCmd                       0x080181e7   Thumb Code     8  stm32f2xx_rcc.o(.text)
    RCC_I2SCLKConfig                         0x080181ef   Thumb Code     6  stm32f2xx_rcc.o(.text)
    RCC_AHB1PeriphClockCmd                   0x080181f5   Thumb Code    34  stm32f2xx_rcc.o(.text)
    RCC_AHB2PeriphClockCmd                   0x08018217   Thumb Code    34  stm32f2xx_rcc.o(.text)
    RCC_AHB3PeriphClockCmd                   0x08018239   Thumb Code    34  stm32f2xx_rcc.o(.text)
    RCC_APB1PeriphClockCmd                   0x0801825b   Thumb Code    34  stm32f2xx_rcc.o(.text)
    RCC_APB2PeriphClockCmd                   0x0801827d   Thumb Code    34  stm32f2xx_rcc.o(.text)
    RCC_AHB1PeriphResetCmd                   0x0801829f   Thumb Code    34  stm32f2xx_rcc.o(.text)
    RCC_AHB2PeriphResetCmd                   0x080182c1   Thumb Code    72  stm32f2xx_rcc.o(.text)
    RCC_AHB3PeriphResetCmd                   0x08018309   Thumb Code    34  stm32f2xx_rcc.o(.text)
    RCC_APB1PeriphResetCmd                   0x0801832b   Thumb Code    34  stm32f2xx_rcc.o(.text)
    RCC_APB2PeriphResetCmd                   0x0801834d   Thumb Code    34  stm32f2xx_rcc.o(.text)
    RCC_AHB1PeriphClockLPModeCmd             0x0801836f   Thumb Code    34  stm32f2xx_rcc.o(.text)
    RCC_AHB2PeriphClockLPModeCmd             0x08018391   Thumb Code    34  stm32f2xx_rcc.o(.text)
    RCC_AHB3PeriphClockLPModeCmd             0x080183b3   Thumb Code    34  stm32f2xx_rcc.o(.text)
    RCC_APB1PeriphClockLPModeCmd             0x080183d5   Thumb Code    34  stm32f2xx_rcc.o(.text)
    RCC_APB2PeriphClockLPModeCmd             0x080183f7   Thumb Code    34  stm32f2xx_rcc.o(.text)
    RCC_ITConfig                             0x08018419   Thumb Code    34  stm32f2xx_rcc.o(.text)
    RCC_ClearFlag                            0x0801843b   Thumb Code    18  stm32f2xx_rcc.o(.text)
    RCC_GetITStatus                          0x0801844d   Thumb Code    22  stm32f2xx_rcc.o(.text)
    RCC_ClearITPendingBit                    0x08018463   Thumb Code     8  stm32f2xx_rcc.o(.text)
    RTC_WaitForSynchro                       0x08018471   Thumb Code    92  stm32f2xx_rtc.o(.text)
    RTC_EnterInitMode                        0x080184cd   Thumb Code    84  stm32f2xx_rtc.o(.text)
    RTC_DeInit                               0x08018521   Thumb Code   182  stm32f2xx_rtc.o(.text)
    RTC_ExitInitMode                         0x080185d7   Thumb Code    18  stm32f2xx_rtc.o(.text)
    RTC_Init                                 0x080185e9   Thumb Code    94  stm32f2xx_rtc.o(.text)
    RTC_StructInit                           0x08018647   Thumb Code    14  stm32f2xx_rtc.o(.text)
    RTC_WriteProtectionCmd                   0x08018655   Thumb Code    22  stm32f2xx_rtc.o(.text)
    RTC_RefClockCmd                          0x0801866b   Thumb Code    76  stm32f2xx_rtc.o(.text)
    RTC_SetTime                              0x080186e9   Thumb Code   184  stm32f2xx_rtc.o(.text)
    RTC_TimeStructInit                       0x080187a1   Thumb Code    12  stm32f2xx_rtc.o(.text)
    RTC_GetTime                              0x080187ad   Thumb Code    74  stm32f2xx_rtc.o(.text)
    RTC_SetDate                              0x080187f7   Thumb Code   190  stm32f2xx_rtc.o(.text)
    RTC_DateStructInit                       0x080188b5   Thumb Code    14  stm32f2xx_rtc.o(.text)
    RTC_GetDate                              0x080188c3   Thumb Code    68  stm32f2xx_rtc.o(.text)
    RTC_SetAlarm                             0x08018907   Thumb Code   234  stm32f2xx_rtc.o(.text)
    RTC_AlarmStructInit                      0x080189f1   Thumb Code    22  stm32f2xx_rtc.o(.text)
    RTC_GetAlarm                             0x08018a07   Thumb Code   114  stm32f2xx_rtc.o(.text)
    RTC_AlarmCmd                             0x08018a79   Thumb Code   116  stm32f2xx_rtc.o(.text)
    RTC_WakeUpClockConfig                    0x08018aed   Thumb Code    46  stm32f2xx_rtc.o(.text)
    RTC_SetWakeUpCounter                     0x08018b1b   Thumb Code    24  stm32f2xx_rtc.o(.text)
    RTC_GetWakeUpCounter                     0x08018b33   Thumb Code    10  stm32f2xx_rtc.o(.text)
    RTC_WakeUpCmd                            0x08018b3d   Thumb Code   120  stm32f2xx_rtc.o(.text)
    RTC_DayLightSavingConfig                 0x08018bb5   Thumb Code    54  stm32f2xx_rtc.o(.text)
    RTC_GetStoreOperation                    0x08018beb   Thumb Code    12  stm32f2xx_rtc.o(.text)
    RTC_OutputConfig                         0x08018bf7   Thumb Code    54  stm32f2xx_rtc.o(.text)
    RTC_CoarseCalibConfig                    0x08018c2d   Thumb Code    56  stm32f2xx_rtc.o(.text)
    RTC_CoarseCalibCmd                       0x08018c65   Thumb Code    82  stm32f2xx_rtc.o(.text)
    RTC_CalibOutputCmd                       0x08018cb7   Thumb Code    50  stm32f2xx_rtc.o(.text)
    RTC_TimeStampCmd                         0x08018ce9   Thumb Code    52  stm32f2xx_rtc.o(.text)
    RTC_GetTimeStamp                         0x08018d1d   Thumb Code   144  stm32f2xx_rtc.o(.text)
    RTC_TamperTriggerConfig                  0x08018dad   Thumb Code    38  stm32f2xx_rtc.o(.text)
    RTC_TamperCmd                            0x08018dd3   Thumb Code    34  stm32f2xx_rtc.o(.text)
    RTC_WriteBackupRegister                  0x08018df5   Thumb Code    26  stm32f2xx_rtc.o(.text)
    RTC_ReadBackupRegister                   0x08018e0f   Thumb Code    28  stm32f2xx_rtc.o(.text)
    RTC_TamperPinSelection                   0x08018e2b   Thumb Code    26  stm32f2xx_rtc.o(.text)
    RTC_TimeStampPinSelection                0x08018e45   Thumb Code    26  stm32f2xx_rtc.o(.text)
    RTC_OutputTypeConfig                     0x08018e5f   Thumb Code    26  stm32f2xx_rtc.o(.text)
    RTC_ITConfig                             0x08018e79   Thumb Code    90  stm32f2xx_rtc.o(.text)
    RTC_GetFlagStatus                        0x08018ed3   Thumb Code    36  stm32f2xx_rtc.o(.text)
    RTC_ClearFlag                            0x08018ef7   Thumb Code    28  stm32f2xx_rtc.o(.text)
    RTC_GetITStatus                          0x08018f13   Thumb Code    58  stm32f2xx_rtc.o(.text)
    RTC_ClearITPendingBit                    0x08018f4d   Thumb Code    32  stm32f2xx_rtc.o(.text)
    SPI_I2S_DeInit                           0x08018f79   Thumb Code    76  stm32f2xx_spi.o(.text)
    SPI_Init                                 0x08018fc5   Thumb Code    60  stm32f2xx_spi.o(.text)
    I2S_Init                                 0x08019001   Thumb Code   350  stm32f2xx_spi.o(.text)
    SPI_StructInit                           0x0801915f   Thumb Code    24  stm32f2xx_spi.o(.text)
    I2S_StructInit                           0x08019177   Thumb Code    20  stm32f2xx_spi.o(.text)
    SPI_Cmd                                  0x0801918b   Thumb Code    24  stm32f2xx_spi.o(.text)
    I2S_Cmd                                  0x080191a3   Thumb Code    24  stm32f2xx_spi.o(.text)
    SPI_DataSizeConfig                       0x080191bb   Thumb Code    18  stm32f2xx_spi.o(.text)
    SPI_BiDirectionalLineConfig              0x080191cd   Thumb Code    28  stm32f2xx_spi.o(.text)
    SPI_NSSInternalSoftwareConfig            0x080191e9   Thumb Code    30  stm32f2xx_spi.o(.text)
    SPI_SSOutputCmd                          0x08019207   Thumb Code    24  stm32f2xx_spi.o(.text)
    SPI_TIModeCmd                            0x0801921f   Thumb Code    24  stm32f2xx_spi.o(.text)
    SPI_I2S_ReceiveData                      0x08019237   Thumb Code     6  stm32f2xx_spi.o(.text)
    SPI_I2S_SendData                         0x0801923d   Thumb Code     4  stm32f2xx_spi.o(.text)
    SPI_CalculateCRC                         0x08019241   Thumb Code    24  stm32f2xx_spi.o(.text)
    SPI_TransmitCRC                          0x08019259   Thumb Code    10  stm32f2xx_spi.o(.text)
    SPI_GetCRC                               0x08019263   Thumb Code    16  stm32f2xx_spi.o(.text)
    SPI_GetCRCPolynomial                     0x08019273   Thumb Code     6  stm32f2xx_spi.o(.text)
    SPI_I2S_DMACmd                           0x08019279   Thumb Code    18  stm32f2xx_spi.o(.text)
    SPI_I2S_ITConfig                         0x0801928b   Thumb Code    32  stm32f2xx_spi.o(.text)
    SPI_I2S_GetFlagStatus                    0x080192ab   Thumb Code    18  stm32f2xx_spi.o(.text)
    SPI_I2S_ClearFlag                        0x080192bd   Thumb Code     6  stm32f2xx_spi.o(.text)
    SPI_I2S_GetITStatus                      0x080192c3   Thumb Code    52  stm32f2xx_spi.o(.text)
    SPI_I2S_ClearITPendingBit                0x080192f7   Thumb Code    20  stm32f2xx_spi.o(.text)
    SYSCFG_DeInit                            0x08019321   Thumb Code    22  stm32f2xx_syscfg.o(.text)
    SYSCFG_MemoryRemapConfig                 0x08019337   Thumb Code     6  stm32f2xx_syscfg.o(.text)
    SYSCFG_EXTILineConfig                    0x0801933d   Thumb Code    66  stm32f2xx_syscfg.o(.text)
    SYSCFG_ETH_MediaInterfaceConfig          0x0801937f   Thumb Code     6  stm32f2xx_syscfg.o(.text)
    SYSCFG_CompensationCellCmd               0x08019385   Thumb Code     6  stm32f2xx_syscfg.o(.text)
    SYSCFG_GetCompensationCellStatus         0x0801938b   Thumb Code    22  stm32f2xx_syscfg.o(.text)
    TIM_DeInit                               0x080193ad   Thumb Code   346  stm32f2xx_tim.o(.text)
    TIM_TimeBaseInit                         0x08019507   Thumb Code   104  stm32f2xx_tim.o(.text)
    TIM_TimeBaseStructInit                   0x0801956f   Thumb Code    18  stm32f2xx_tim.o(.text)
    TIM_PrescalerConfig                      0x08019581   Thumb Code     6  stm32f2xx_tim.o(.text)
    TIM_CounterModeConfig                    0x08019587   Thumb Code    18  stm32f2xx_tim.o(.text)
    TIM_SetCounter                           0x08019599   Thumb Code     4  stm32f2xx_tim.o(.text)
    TIM_SetAutoreload                        0x0801959d   Thumb Code     4  stm32f2xx_tim.o(.text)
    TIM_GetCounter                           0x080195a1   Thumb Code     6  stm32f2xx_tim.o(.text)
    TIM_GetPrescaler                         0x080195a7   Thumb Code     6  stm32f2xx_tim.o(.text)
    TIM_UpdateDisableConfig                  0x080195ad   Thumb Code    24  stm32f2xx_tim.o(.text)
    TIM_UpdateRequestConfig                  0x080195c5   Thumb Code    24  stm32f2xx_tim.o(.text)
    TIM_ARRPreloadConfig                     0x080195dd   Thumb Code    24  stm32f2xx_tim.o(.text)
    TIM_SelectOnePulseMode                   0x080195f5   Thumb Code    18  stm32f2xx_tim.o(.text)
    TIM_SetClockDivision                     0x08019607   Thumb Code    18  stm32f2xx_tim.o(.text)
    TIM_Cmd                                  0x08019619   Thumb Code    24  stm32f2xx_tim.o(.text)
    TIM_OC1Init                              0x08019631   Thumb Code   114  stm32f2xx_tim.o(.text)
    TIM_OC2Init                              0x080196a3   Thumb Code   154  stm32f2xx_tim.o(.text)
    TIM_OC3Init                              0x0801973d   Thumb Code   204  stm32f2xx_tim.o(.text)
    TIM_OC4Init                              0x08019809   Thumb Code   112  stm32f2xx_tim.o(.text)
    TIM_OCStructInit                         0x08019879   Thumb Code    20  stm32f2xx_tim.o(.text)
    TIM_SelectOCxM                           0x0801988d   Thumb Code    86  stm32f2xx_tim.o(.text)
    TIM_SetCompare1                          0x080198e3   Thumb Code     4  stm32f2xx_tim.o(.text)
    TIM_SetCompare2                          0x080198e7   Thumb Code     4  stm32f2xx_tim.o(.text)
    TIM_SetCompare3                          0x080198eb   Thumb Code     4  stm32f2xx_tim.o(.text)
    TIM_SetCompare4                          0x080198ef   Thumb Code     4  stm32f2xx_tim.o(.text)
    TIM_ForcedOC1Config                      0x080198f3   Thumb Code    18  stm32f2xx_tim.o(.text)
    TIM_ForcedOC2Config                      0x08019905   Thumb Code    26  stm32f2xx_tim.o(.text)
    TIM_ForcedOC3Config                      0x0801991f   Thumb Code    18  stm32f2xx_tim.o(.text)
    TIM_ForcedOC4Config                      0x08019931   Thumb Code    26  stm32f2xx_tim.o(.text)
    TIM_OC1PreloadConfig                     0x0801994b   Thumb Code    18  stm32f2xx_tim.o(.text)
    TIM_OC2PreloadConfig                     0x0801995d   Thumb Code    26  stm32f2xx_tim.o(.text)
    TIM_OC3PreloadConfig                     0x08019977   Thumb Code    18  stm32f2xx_tim.o(.text)
    TIM_OC4PreloadConfig                     0x08019989   Thumb Code    26  stm32f2xx_tim.o(.text)
    TIM_OC1FastConfig                        0x080199a3   Thumb Code    18  stm32f2xx_tim.o(.text)
    TIM_OC2FastConfig                        0x080199b5   Thumb Code    26  stm32f2xx_tim.o(.text)
    TIM_OC3FastConfig                        0x080199cf   Thumb Code    18  stm32f2xx_tim.o(.text)
    TIM_OC4FastConfig                        0x080199e1   Thumb Code    26  stm32f2xx_tim.o(.text)
    TIM_ClearOC1Ref                          0x080199fb   Thumb Code    18  stm32f2xx_tim.o(.text)
    TIM_ClearOC2Ref                          0x08019a0d   Thumb Code    24  stm32f2xx_tim.o(.text)
    TIM_ClearOC3Ref                          0x08019a25   Thumb Code    18  stm32f2xx_tim.o(.text)
    TIM_ClearOC4Ref                          0x08019a37   Thumb Code    24  stm32f2xx_tim.o(.text)
    TIM_OC1PolarityConfig                    0x08019a4f   Thumb Code    18  stm32f2xx_tim.o(.text)
    TIM_OC1NPolarityConfig                   0x08019a61   Thumb Code    18  stm32f2xx_tim.o(.text)
    TIM_OC2PolarityConfig                    0x08019a73   Thumb Code    26  stm32f2xx_tim.o(.text)
    TIM_OC2NPolarityConfig                   0x08019a8d   Thumb Code    26  stm32f2xx_tim.o(.text)
    TIM_OC3PolarityConfig                    0x08019aa7   Thumb Code    26  stm32f2xx_tim.o(.text)
    TIM_OC3NPolarityConfig                   0x08019ac1   Thumb Code    26  stm32f2xx_tim.o(.text)
    TIM_OC4PolarityConfig                    0x08019adb   Thumb Code    26  stm32f2xx_tim.o(.text)
    TIM_CCxCmd                               0x08019af5   Thumb Code    30  stm32f2xx_tim.o(.text)
    TIM_CCxNCmd                              0x08019b13   Thumb Code    30  stm32f2xx_tim.o(.text)
    TIM_SetIC4Prescaler                      0x08019b31   Thumb Code    26  stm32f2xx_tim.o(.text)
    TIM_SetIC3Prescaler                      0x08019b9b   Thumb Code    18  stm32f2xx_tim.o(.text)
    TIM_SetIC2Prescaler                      0x08019bf5   Thumb Code    26  stm32f2xx_tim.o(.text)
    TIM_SetIC1Prescaler                      0x08019c69   Thumb Code    18  stm32f2xx_tim.o(.text)
    TIM_ICInit                               0x08019cb5   Thumb Code   110  stm32f2xx_tim.o(.text)
    TIM_ICStructInit                         0x08019d23   Thumb Code    18  stm32f2xx_tim.o(.text)
    TIM_PWMIConfig                           0x08019d35   Thumb Code   124  stm32f2xx_tim.o(.text)
    TIM_GetCapture1                          0x08019db1   Thumb Code     6  stm32f2xx_tim.o(.text)
    TIM_GetCapture2                          0x08019db7   Thumb Code     6  stm32f2xx_tim.o(.text)
    TIM_GetCapture3                          0x08019dbd   Thumb Code     6  stm32f2xx_tim.o(.text)
    TIM_GetCapture4                          0x08019dc3   Thumb Code     6  stm32f2xx_tim.o(.text)
    TIM_BDTRConfig                           0x08019dc9   Thumb Code    32  stm32f2xx_tim.o(.text)
    TIM_BDTRStructInit                       0x08019de9   Thumb Code    18  stm32f2xx_tim.o(.text)
    TIM_CtrlPWMOutputs                       0x08019dfb   Thumb Code    30  stm32f2xx_tim.o(.text)
    TIM_SelectCOM                            0x08019e19   Thumb Code    24  stm32f2xx_tim.o(.text)
    TIM_CCPreloadControl                     0x08019e31   Thumb Code    24  stm32f2xx_tim.o(.text)
    TIM_ITConfig                             0x08019e49   Thumb Code    18  stm32f2xx_tim.o(.text)
    TIM_GenerateEvent                        0x08019e5b   Thumb Code     4  stm32f2xx_tim.o(.text)
    TIM_GetFlagStatus                        0x08019e5f   Thumb Code    18  stm32f2xx_tim.o(.text)
    TIM_ClearFlag                            0x08019e71   Thumb Code     6  stm32f2xx_tim.o(.text)
    TIM_GetITStatus                          0x08019e77   Thumb Code    34  stm32f2xx_tim.o(.text)
    TIM_ClearITPendingBit                    0x08019e99   Thumb Code     6  stm32f2xx_tim.o(.text)
    TIM_DMAConfig                            0x08019e9f   Thumb Code    10  stm32f2xx_tim.o(.text)
    TIM_DMACmd                               0x08019ea9   Thumb Code    18  stm32f2xx_tim.o(.text)
    TIM_SelectCCDMA                          0x08019ebb   Thumb Code    24  stm32f2xx_tim.o(.text)
    TIM_InternalClockConfig                  0x08019ed3   Thumb Code    12  stm32f2xx_tim.o(.text)
    TIM_SelectInputTrigger                   0x08019edf   Thumb Code    18  stm32f2xx_tim.o(.text)
    TIM_ITRxExternalClockConfig              0x08019ef1   Thumb Code    24  stm32f2xx_tim.o(.text)
    TIM_TIxExternalClockConfig               0x08019f09   Thumb Code    62  stm32f2xx_tim.o(.text)
    TIM_ETRConfig                            0x08019f47   Thumb Code    28  stm32f2xx_tim.o(.text)
    TIM_ETRClockMode1Config                  0x08019f63   Thumb Code    54  stm32f2xx_tim.o(.text)
    TIM_ETRClockMode2Config                  0x08019f99   Thumb Code    32  stm32f2xx_tim.o(.text)
    TIM_SelectOutputTrigger                  0x08019fb9   Thumb Code    18  stm32f2xx_tim.o(.text)
    TIM_SelectSlaveMode                      0x08019fcb   Thumb Code    18  stm32f2xx_tim.o(.text)
    TIM_SelectMasterSlaveMode                0x08019fdd   Thumb Code    18  stm32f2xx_tim.o(.text)
    TIM_EncoderInterfaceConfig               0x08019fef   Thumb Code    66  stm32f2xx_tim.o(.text)
    TIM_SelectHallSensor                     0x0801a031   Thumb Code    24  stm32f2xx_tim.o(.text)
    TIM_RemapConfig                          0x0801a049   Thumb Code     6  stm32f2xx_tim.o(.text)
    USART_DeInit                             0x0801a051   Thumb Code   156  stm32f2xx_usart.o(.text)
    USART_Init                               0x0801a0ed   Thumb Code   204  stm32f2xx_usart.o(.text)
    USART_StructInit                         0x0801a1b9   Thumb Code    24  stm32f2xx_usart.o(.text)
    USART_ClockInit                          0x0801a1d1   Thumb Code    32  stm32f2xx_usart.o(.text)
    USART_ClockStructInit                    0x0801a1f1   Thumb Code    12  stm32f2xx_usart.o(.text)
    USART_Cmd                                0x0801a1fd   Thumb Code    24  stm32f2xx_usart.o(.text)
    USART_SetPrescaler                       0x0801a215   Thumb Code    16  stm32f2xx_usart.o(.text)
    USART_OverSampling8Cmd                   0x0801a225   Thumb Code    22  stm32f2xx_usart.o(.text)
    USART_OneBitMethodCmd                    0x0801a23b   Thumb Code    24  stm32f2xx_usart.o(.text)
    USART_SendData                           0x0801a253   Thumb Code     8  stm32f2xx_usart.o(.text)
    USART_ReceiveData                        0x0801a25b   Thumb Code    10  stm32f2xx_usart.o(.text)
    USART_SetAddress                         0x0801a265   Thumb Code    18  stm32f2xx_usart.o(.text)
    USART_ReceiverWakeUpCmd                  0x0801a277   Thumb Code    24  stm32f2xx_usart.o(.text)
    USART_WakeUpConfig                       0x0801a28f   Thumb Code    18  stm32f2xx_usart.o(.text)
    USART_LINBreakDetectLengthConfig         0x0801a2a1   Thumb Code    18  stm32f2xx_usart.o(.text)
    USART_LINCmd                             0x0801a2b3   Thumb Code    24  stm32f2xx_usart.o(.text)
    USART_SendBreak                          0x0801a2cb   Thumb Code    10  stm32f2xx_usart.o(.text)
    USART_HalfDuplexCmd                      0x0801a2d5   Thumb Code    24  stm32f2xx_usart.o(.text)
    USART_SetGuardTime                       0x0801a2ed   Thumb Code    16  stm32f2xx_usart.o(.text)
    USART_SmartCardCmd                       0x0801a2fd   Thumb Code    24  stm32f2xx_usart.o(.text)
    USART_SmartCardNACKCmd                   0x0801a315   Thumb Code    24  stm32f2xx_usart.o(.text)
    USART_IrDAConfig                         0x0801a32d   Thumb Code    18  stm32f2xx_usart.o(.text)
    USART_IrDACmd                            0x0801a33f   Thumb Code    24  stm32f2xx_usart.o(.text)
    USART_DMACmd                             0x0801a357   Thumb Code    18  stm32f2xx_usart.o(.text)
    USART_ITConfig                           0x0801a369   Thumb Code    74  stm32f2xx_usart.o(.text)
    USART_GetFlagStatus                      0x0801a3b3   Thumb Code    26  stm32f2xx_usart.o(.text)
    USART_ClearFlag                          0x0801a3cd   Thumb Code    18  stm32f2xx_usart.o(.text)
    USART_GetITStatus                        0x0801a3df   Thumb Code   110  stm32f2xx_usart.o(.text)
    USART_ClearITPendingBit                  0x0801a44d   Thumb Code    30  stm32f2xx_usart.o(.text)
    Reset_Handler                            0x0801a46d   Thumb Code     8  startup_stm32f2xx.o(.text)
    NMI_Handler                              0x0801a475   Thumb Code     2  startup_stm32f2xx.o(.text)
    HardFault_Handler                        0x0801a477   Thumb Code     2  startup_stm32f2xx.o(.text)
    MemManage_Handler                        0x0801a479   Thumb Code     2  startup_stm32f2xx.o(.text)
    BusFault_Handler                         0x0801a47b   Thumb Code     2  startup_stm32f2xx.o(.text)
    UsageFault_Handler                       0x0801a47d   Thumb Code     2  startup_stm32f2xx.o(.text)
    SVC_Handler                              0x0801a47f   Thumb Code     2  startup_stm32f2xx.o(.text)
    DebugMon_Handler                         0x0801a481   Thumb Code     2  startup_stm32f2xx.o(.text)
    PendSV_Handler                           0x0801a483   Thumb Code     2  startup_stm32f2xx.o(.text)
    ADC_IRQHandler                           0x0801a487   Thumb Code     0  startup_stm32f2xx.o(.text)
    CAN1_RX0_IRQHandler                      0x0801a487   Thumb Code     0  startup_stm32f2xx.o(.text)
    CAN1_RX1_IRQHandler                      0x0801a487   Thumb Code     0  startup_stm32f2xx.o(.text)
    CAN1_SCE_IRQHandler                      0x0801a487   Thumb Code     0  startup_stm32f2xx.o(.text)
    CAN1_TX_IRQHandler                       0x0801a487   Thumb Code     0  startup_stm32f2xx.o(.text)
    CAN2_RX0_IRQHandler                      0x0801a487   Thumb Code     0  startup_stm32f2xx.o(.text)
    CAN2_RX1_IRQHandler                      0x0801a487   Thumb Code     0  startup_stm32f2xx.o(.text)
    CAN2_SCE_IRQHandler                      0x0801a487   Thumb Code     0  startup_stm32f2xx.o(.text)
    CAN2_TX_IRQHandler                       0x0801a487   Thumb Code     0  startup_stm32f2xx.o(.text)
    CRYP_IRQHandler                          0x0801a487   Thumb Code     0  startup_stm32f2xx.o(.text)
    DCMI_IRQHandler                          0x0801a487   Thumb Code     0  startup_stm32f2xx.o(.text)
    DMA1_Stream0_IRQHandler                  0x0801a487   Thumb Code     0  startup_stm32f2xx.o(.text)
    DMA1_Stream1_IRQHandler                  0x0801a487   Thumb Code     0  startup_stm32f2xx.o(.text)
    DMA1_Stream2_IRQHandler                  0x0801a487   Thumb Code     0  startup_stm32f2xx.o(.text)
    DMA1_Stream3_IRQHandler                  0x0801a487   Thumb Code     0  startup_stm32f2xx.o(.text)
    DMA1_Stream4_IRQHandler                  0x0801a487   Thumb Code     0  startup_stm32f2xx.o(.text)
    DMA1_Stream5_IRQHandler                  0x0801a487   Thumb Code     0  startup_stm32f2xx.o(.text)
    DMA1_Stream6_IRQHandler                  0x0801a487   Thumb Code     0  startup_stm32f2xx.o(.text)
    DMA1_Stream7_IRQHandler                  0x0801a487   Thumb Code     0  startup_stm32f2xx.o(.text)
    DMA2_Stream0_IRQHandler                  0x0801a487   Thumb Code     0  startup_stm32f2xx.o(.text)
    DMA2_Stream1_IRQHandler                  0x0801a487   Thumb Code     0  startup_stm32f2xx.o(.text)
    DMA2_Stream2_IRQHandler                  0x0801a487   Thumb Code     0  startup_stm32f2xx.o(.text)
    DMA2_Stream3_IRQHandler                  0x0801a487   Thumb Code     0  startup_stm32f2xx.o(.text)
    DMA2_Stream4_IRQHandler                  0x0801a487   Thumb Code     0  startup_stm32f2xx.o(.text)
    DMA2_Stream5_IRQHandler                  0x0801a487   Thumb Code     0  startup_stm32f2xx.o(.text)
    DMA2_Stream6_IRQHandler                  0x0801a487   Thumb Code     0  startup_stm32f2xx.o(.text)
    DMA2_Stream7_IRQHandler                  0x0801a487   Thumb Code     0  startup_stm32f2xx.o(.text)
    ETH_IRQHandler                           0x0801a487   Thumb Code     0  startup_stm32f2xx.o(.text)
    ETH_WKUP_IRQHandler                      0x0801a487   Thumb Code     0  startup_stm32f2xx.o(.text)
    EXTI0_IRQHandler                         0x0801a487   Thumb Code     0  startup_stm32f2xx.o(.text)
    EXTI15_10_IRQHandler                     0x0801a487   Thumb Code     0  startup_stm32f2xx.o(.text)
    EXTI1_IRQHandler                         0x0801a487   Thumb Code     0  startup_stm32f2xx.o(.text)
    EXTI2_IRQHandler                         0x0801a487   Thumb Code     0  startup_stm32f2xx.o(.text)
    EXTI3_IRQHandler                         0x0801a487   Thumb Code     0  startup_stm32f2xx.o(.text)
    EXTI4_IRQHandler                         0x0801a487   Thumb Code     0  startup_stm32f2xx.o(.text)
    FLASH_IRQHandler                         0x0801a487   Thumb Code     0  startup_stm32f2xx.o(.text)
    FSMC_IRQHandler                          0x0801a487   Thumb Code     0  startup_stm32f2xx.o(.text)
    HASH_RNG_IRQHandler                      0x0801a487   Thumb Code     0  startup_stm32f2xx.o(.text)
    I2C1_ER_IRQHandler                       0x0801a487   Thumb Code     0  startup_stm32f2xx.o(.text)
    I2C1_EV_IRQHandler                       0x0801a487   Thumb Code     0  startup_stm32f2xx.o(.text)
    I2C2_ER_IRQHandler                       0x0801a487   Thumb Code     0  startup_stm32f2xx.o(.text)
    I2C2_EV_IRQHandler                       0x0801a487   Thumb Code     0  startup_stm32f2xx.o(.text)
    I2C3_ER_IRQHandler                       0x0801a487   Thumb Code     0  startup_stm32f2xx.o(.text)
    I2C3_EV_IRQHandler                       0x0801a487   Thumb Code     0  startup_stm32f2xx.o(.text)
    OTG_FS_IRQHandler                        0x0801a487   Thumb Code     0  startup_stm32f2xx.o(.text)
    OTG_FS_WKUP_IRQHandler                   0x0801a487   Thumb Code     0  startup_stm32f2xx.o(.text)
    OTG_HS_EP1_IN_IRQHandler                 0x0801a487   Thumb Code     0  startup_stm32f2xx.o(.text)
    OTG_HS_EP1_OUT_IRQHandler                0x0801a487   Thumb Code     0  startup_stm32f2xx.o(.text)
    OTG_HS_IRQHandler                        0x0801a487   Thumb Code     0  startup_stm32f2xx.o(.text)
    OTG_HS_WKUP_IRQHandler                   0x0801a487   Thumb Code     0  startup_stm32f2xx.o(.text)
    PVD_IRQHandler                           0x0801a487   Thumb Code     0  startup_stm32f2xx.o(.text)
    RCC_IRQHandler                           0x0801a487   Thumb Code     0  startup_stm32f2xx.o(.text)
    RTC_Alarm_IRQHandler                     0x0801a487   Thumb Code     0  startup_stm32f2xx.o(.text)
    RTC_WKUP_IRQHandler                      0x0801a487   Thumb Code     0  startup_stm32f2xx.o(.text)
    SDIO_IRQHandler                          0x0801a487   Thumb Code     0  startup_stm32f2xx.o(.text)
    SPI1_IRQHandler                          0x0801a487   Thumb Code     0  startup_stm32f2xx.o(.text)
    SPI2_IRQHandler                          0x0801a487   Thumb Code     0  startup_stm32f2xx.o(.text)
    SPI3_IRQHandler                          0x0801a487   Thumb Code     0  startup_stm32f2xx.o(.text)
    TAMP_STAMP_IRQHandler                    0x0801a487   Thumb Code     0  startup_stm32f2xx.o(.text)
    TIM1_BRK_TIM9_IRQHandler                 0x0801a487   Thumb Code     0  startup_stm32f2xx.o(.text)
    TIM1_CC_IRQHandler                       0x0801a487   Thumb Code     0  startup_stm32f2xx.o(.text)
    TIM1_TRG_COM_TIM11_IRQHandler            0x0801a487   Thumb Code     0  startup_stm32f2xx.o(.text)
    TIM1_UP_TIM10_IRQHandler                 0x0801a487   Thumb Code     0  startup_stm32f2xx.o(.text)
    TIM4_IRQHandler                          0x0801a487   Thumb Code     0  startup_stm32f2xx.o(.text)
    TIM5_IRQHandler                          0x0801a487   Thumb Code     0  startup_stm32f2xx.o(.text)
    TIM6_DAC_IRQHandler                      0x0801a487   Thumb Code     0  startup_stm32f2xx.o(.text)
    TIM7_IRQHandler                          0x0801a487   Thumb Code     0  startup_stm32f2xx.o(.text)
    TIM8_BRK_TIM12_IRQHandler                0x0801a487   Thumb Code     0  startup_stm32f2xx.o(.text)
    TIM8_CC_IRQHandler                       0x0801a487   Thumb Code     0  startup_stm32f2xx.o(.text)
    TIM8_TRG_COM_TIM14_IRQHandler            0x0801a487   Thumb Code     0  startup_stm32f2xx.o(.text)
    TIM8_UP_TIM13_IRQHandler                 0x0801a487   Thumb Code     0  startup_stm32f2xx.o(.text)
    USART6_IRQHandler                        0x0801a487   Thumb Code     0  startup_stm32f2xx.o(.text)
    WWDG_IRQHandler                          0x0801a487   Thumb Code     0  startup_stm32f2xx.o(.text)
    __user_initial_stackheap                 0x0801a489   Thumb Code     0  startup_stm32f2xx.o(.text)
    SystemInit                               0x0801a56d   Thumb Code    74  system_stm32f2xx.o(.text)
    SystemCoreClockUpdate                    0x0801a5b7   Thumb Code   174  system_stm32f2xx.o(.text)
    __2sprintf                               0x0801a68d   Thumb Code    38  __2sprintf.o(.text)
    _printf_pre_padding                      0x0801a6b9   Thumb Code    44  _printf_pad.o(.text)
    _printf_post_padding                     0x0801a6e5   Thumb Code    34  _printf_pad.o(.text)
    _printf_str                              0x0801a707   Thumb Code    82  _printf_str.o(.text)
    _printf_int_dec                          0x0801a759   Thumb Code   104  _printf_dec.o(.text)
    __printf                                 0x0801a7d1   Thumb Code   308  __printf_flags_wp.o(.text)
    atoi                                     0x0801a909   Thumb Code    26  atoi.o(.text)
    strtok                                   0x0801a925   Thumb Code     6  strtok.o(.text)
    strstr                                   0x0801a931   Thumb Code    36  strstr.o(.text)
    strcpy                                   0x0801a955   Thumb Code    72  strcpy.o(.text)
    strlen                                   0x0801a99d   Thumb Code    62  strlen.o(.text)
    strcat                                   0x0801a9db   Thumb Code    24  strcat.o(.text)
    __aeabi_memcpy                           0x0801a9f3   Thumb Code     0  rt_memcpy_v6.o(.text)
    __rt_memcpy                              0x0801a9f3   Thumb Code   138  rt_memcpy_v6.o(.text)
    _memcpy_lastbytes                        0x0801aa59   Thumb Code     0  rt_memcpy_v6.o(.text)
    __aeabi_memcpy4                          0x0801aa7d   Thumb Code     0  rt_memcpy_w.o(.text)
    __aeabi_memcpy8                          0x0801aa7d   Thumb Code     0  rt_memcpy_w.o(.text)
    __rt_memcpy_w                            0x0801aa7d   Thumb Code   100  rt_memcpy_w.o(.text)
    _memcpy_lastbytes_aligned                0x0801aac5   Thumb Code     0  rt_memcpy_w.o(.text)
    __aeabi_memclr4                          0x0801aae1   Thumb Code     0  rt_memclr_w.o(.text)
    __aeabi_memclr8                          0x0801aae1   Thumb Code     0  rt_memclr_w.o(.text)
    __rt_memclr_w                            0x0801aae1   Thumb Code    78  rt_memclr_w.o(.text)
    _memset_w                                0x0801aae5   Thumb Code     0  rt_memclr_w.o(.text)
    strcmp                                   0x0801ab31   Thumb Code   128  strcmpv7m.o(.text)
    localtime                                0x0801abb1   Thumb Code     6  localtime.o(.text)
    mktime                                   0x0801abfb   Thumb Code   356  mktime.o(.text)
    __use_two_region_memory                  0x0801ad69   Thumb Code     2  heapauxi.o(.text)
    __rt_heap_escrow$2region                 0x0801ad6b   Thumb Code     2  heapauxi.o(.text)
    __rt_heap_expand$2region                 0x0801ad6d   Thumb Code     2  heapauxi.o(.text)
    __aeabi_errno_addr                       0x0801ad71   Thumb Code     8  rt_errno_addr_intlibspace.o(.text)
    __errno$intlibspace                      0x0801ad71   Thumb Code     0  rt_errno_addr_intlibspace.o(.text)
    __rt_errno_addr$intlibspace              0x0801ad71   Thumb Code     0  rt_errno_addr_intlibspace.o(.text)
    __read_errno                             0x0801ad79   Thumb Code    10  _rserrno.o(.text)
    __set_errno                              0x0801ad83   Thumb Code    12  _rserrno.o(.text)
    _printf_int_common                       0x0801ad8f   Thumb Code   178  _printf_intcommon.o(.text)
    __lib_sel_fp_printf                      0x0801ae41   Thumb Code     2  _printf_fp_dec.o(.text)
    _printf_fp_dec_real                      0x0801afef   Thumb Code   620  _printf_fp_dec.o(.text)
    _printf_char_common                      0x0801b267   Thumb Code    32  _printf_char_common.o(.text)
    _sputc                                   0x0801b28d   Thumb Code    10  _sputc.o(.text)
    _printf_cs_common                        0x0801b297   Thumb Code    20  _printf_char.o(.text)
    _printf_char                             0x0801b2ab   Thumb Code    16  _printf_char.o(.text)
    _printf_string                           0x0801b2bb   Thumb Code     8  _printf_char.o(.text)
    __strtod_int                             0x0801b301   Thumb Code    90  strtod.o(.text)
    strtol                                   0x0801b369   Thumb Code   112  strtol.o(.text)
    __strtok_internal                        0x0801b3d9   Thumb Code    64  strtok_int.o(.text)
    _localtime_r                             0x0801b41d   Thumb Code   178  localtime_internal.o(.text)
    _n$localtime_r                           0x0801b41d   Thumb Code     0  localtime_internal.o(.text)
    __user_libspace                          0x0801b4d5   Thumb Code     8  libspace.o(.text)
    __user_perproc_libspace                  0x0801b4d5   Thumb Code     0  libspace.o(.text)
    __user_perthread_libspace                0x0801b4d5   Thumb Code     0  libspace.o(.text)
    __rt_ctype_table                         0x0801b4dd   Thumb Code    16  rt_ctype_table.o(.text)
    __rt_locale                              0x0801b4ed   Thumb Code     8  rt_locale_intlibspace.o(.text)
    _ll_udiv10                               0x0801b4f5   Thumb Code   138  lludiv10.o(.text)
    isspace                                  0x0801b57f   Thumb Code    18  isspace.o(.text)
    _printf_fp_infnan                        0x0801b591   Thumb Code   112  _printf_fp_infnan.o(.text)
    _sgetc                                   0x0801b611   Thumb Code    30  _sgetc.o(.text)
    _sbackspace                              0x0801b62f   Thumb Code    34  _sgetc.o(.text)
    _strtoul                                 0x0801b651   Thumb Code   158  _strtoul.o(.text)
    _btod_etento                             0x0801b6f1   Thumb Code   216  bigflt0.o(.text)
    strcspn                                  0x0801b7cd   Thumb Code    32  strcspn.o(.text)
    strspn                                   0x0801b7ed   Thumb Code    28  strspn.o(.text)
    __user_setup_stackheap                   0x0801b809   Thumb Code    74  sys_stackheap_outer.o(.text)
    _chval                                   0x0801b853   Thumb Code    28  _chval.o(.text)
    _scanf_really_real                       0x0801ba6d   Thumb Code   668  scanf_fp.o(.text)
    exit                                     0x0801bd15   Thumb Code    18  exit.o(.text)
    _scanf_really_hex_real                   0x0801bd29   Thumb Code   786  scanf_hexfp.o(.text)
    _scanf_really_infnan                     0x0801c049   Thumb Code   292  scanf_infnan.o(.text)
    _sys_exit                                0x0801c17d   Thumb Code     8  sys_exit.o(.text)
    __aeabi_llsl                             0x0801c189   Thumb Code     0  llshl.o(.text)
    _ll_shift_l                              0x0801c189   Thumb Code    38  llshl.o(.text)
    __I$use$semihosting                      0x0801c1af   Thumb Code     0  use_no_semi.o(.text)
    __use_no_semihosting_swi                 0x0801c1af   Thumb Code     2  use_no_semi.o(.text)
    __semihosting_library_function           0x0801c1b1   Thumb Code     0  indicate_semi.o(.text)
    _btod_d2e                                0x0801c1b1   Thumb Code    62  btod.o(CL$$btod_d2e)
    _d2e_denorm_low                          0x0801c1ef   Thumb Code    70  btod.o(CL$$btod_d2e_denorm_low)
    _d2e_norm_op1                            0x0801c235   Thumb Code    96  btod.o(CL$$btod_d2e_norm_op1)
    __btod_div_common                        0x0801c295   Thumb Code   696  btod.o(CL$$btod_div_common)
    _e2d                                     0x0801c5cd   Thumb Code    80  btod.o(CL$$btod_e2d)
    _e2e                                     0x0801c621   Thumb Code   198  btod.o(CL$$btod_e2e)
    _btod_ediv                               0x0801c6e7   Thumb Code    40  btod.o(CL$$btod_ediv)
    _btod_edivd                              0x0801c70f   Thumb Code    40  btod.o(CL$$btod_edivd)
    _btod_emul                               0x0801c737   Thumb Code    40  btod.o(CL$$btod_emul)
    _btod_emuld                              0x0801c75f   Thumb Code    40  btod.o(CL$$btod_emuld)
    __btod_mult_common                       0x0801c787   Thumb Code   580  btod.o(CL$$btod_mult_common)
    __ARM_fpclassify                         0x0801c9cb   Thumb Code    40  fpclassify.o(i.__ARM_fpclassify)
    __mathlib_dbl_overflow                   0x0801c9f3   Thumb Code    14  dunder.o(i.__mathlib_dbl_overflow)
    __mathlib_dbl_underflow                  0x0801ca01   Thumb Code    10  dunder.o(i.__mathlib_dbl_underflow)
    __mathlib_narrow                         0x0801ca11   Thumb Code    16  narrow.o(i.__mathlib_narrow)
    __mathlib_tofloat                        0x0801ca21   Thumb Code   132  narrow.o(i.__mathlib_tofloat)
    __support_ldexp                          0x0801caa9   Thumb Code    22  ldexp.o(i.__support_ldexp)
    _is_digit                                0x0801cabf   Thumb Code    14  __printf_wp.o(i._is_digit)
    atof                                     0x0801cacd   Thumb Code    42  atof.o(i.atof)
    frexp                                    0x0801caf9   Thumb Code    80  frexp.o(i.frexp)
    ldexp                                    0x0801cb51   Thumb Code   116  ldexp.o(i.ldexp)
    _get_lc_numeric                          0x0801cbc5   Thumb Code    44  lc_numeric_c.o(locale$$code)
    _get_lc_ctype                            0x0801cbf1   Thumb Code    44  lc_ctype_c.o(locale$$code)
    __aeabi_d2f                              0x0801cc1d   Thumb Code     0  d2f.o(x$fpl$d2f)
    _d2f                                     0x0801cc1d   Thumb Code    98  d2f.o(x$fpl$d2f)
    __fpl_dcheck_NaN1                        0x0801cc81   Thumb Code    10  dcheck1.o(x$fpl$dcheck1)
    __fpl_dcmp_Inf                           0x0801cc91   Thumb Code    24  dcmpi.o(x$fpl$dcmpinf)
    __aeabi_cdcmpeq                          0x0801cca9   Thumb Code     0  deqf.o(x$fpl$deqf)
    _dcmpeq                                  0x0801cca9   Thumb Code   120  deqf.o(x$fpl$deqf)
    __aeabi_d2uiz                            0x0801cd21   Thumb Code     0  dfixu.o(x$fpl$dfixu)
    _dfixu                                   0x0801cd21   Thumb Code    90  dfixu.o(x$fpl$dfixu)
    __aeabi_ui2d                             0x0801cd7b   Thumb Code     0  dflt_clz.o(x$fpl$dfltu)
    _dfltu                                   0x0801cd7b   Thumb Code    38  dflt_clz.o(x$fpl$dfltu)
    __aeabi_cdcmple                          0x0801cda1   Thumb Code     0  dleqf.o(x$fpl$dleqf)
    _dcmple                                  0x0801cda1   Thumb Code   120  dleqf.o(x$fpl$dleqf)
    __fpl_dcmple_InfNaN                      0x0801ce03   Thumb Code     0  dleqf.o(x$fpl$dleqf)
    __aeabi_dmul                             0x0801ce19   Thumb Code     0  dmul.o(x$fpl$dmul)
    _dmul                                    0x0801ce19   Thumb Code   332  dmul.o(x$fpl$dmul)
    __fpl_dnaninf                            0x0801cf6d   Thumb Code   156  dnaninf.o(x$fpl$dnaninf)
    __fpl_dretinf                            0x0801d009   Thumb Code    12  dretinf.o(x$fpl$dretinf)
    __aeabi_cdrcmple                         0x0801d015   Thumb Code     0  drleqf.o(x$fpl$drleqf)
    _drcmple                                 0x0801d015   Thumb Code   108  drleqf.o(x$fpl$drleqf)
    __aeabi_f2d                              0x0801d081   Thumb Code     0  f2d.o(x$fpl$f2d)
    _f2d                                     0x0801d081   Thumb Code    86  f2d.o(x$fpl$f2d)
    __aeabi_fadd                             0x0801d0d9   Thumb Code     0  faddsub_clz.o(x$fpl$fadd)
    _fadd                                    0x0801d0d9   Thumb Code   196  faddsub_clz.o(x$fpl$fadd)
    __aeabi_fdiv                             0x0801d19d   Thumb Code     0  fdiv.o(x$fpl$fdiv)
    _fdiv                                    0x0801d19d   Thumb Code   384  fdiv.o(x$fpl$fdiv)
    __aeabi_f2uiz                            0x0801d321   Thumb Code     0  ffixu.o(x$fpl$ffixu)
    _ffixu                                   0x0801d321   Thumb Code    62  ffixu.o(x$fpl$ffixu)
    __aeabi_i2f                              0x0801d361   Thumb Code     0  fflt_clz.o(x$fpl$fflt)
    _fflt                                    0x0801d361   Thumb Code    48  fflt_clz.o(x$fpl$fflt)
    __aeabi_ui2f                             0x0801d391   Thumb Code     0  fflt_clz.o(x$fpl$ffltu)
    _ffltu                                   0x0801d391   Thumb Code    38  fflt_clz.o(x$fpl$ffltu)
    __aeabi_fmul                             0x0801d3b9   Thumb Code     0  fmul.o(x$fpl$fmul)
    _fmul                                    0x0801d3b9   Thumb Code   258  fmul.o(x$fpl$fmul)
    __fpl_fnaninf                            0x0801d4bb   Thumb Code   140  fnaninf.o(x$fpl$fnaninf)
    __fpl_fretinf                            0x0801d547   Thumb Code    10  fretinf.o(x$fpl$fretinf)
    __aeabi_fsub                             0x0801d551   Thumb Code     0  faddsub_clz.o(x$fpl$fsub)
    _fsub                                    0x0801d551   Thumb Code   234  faddsub_clz.o(x$fpl$fsub)
    _printf_fp_dec                           0x0801d63b   Thumb Code     4  printf1.o(x$fpl$printf1)
    __fpl_return_NaN                         0x0801d63f   Thumb Code   100  retnan.o(x$fpl$retnan)
    __ARM_scalbn                             0x0801d6a3   Thumb Code    92  scalbn.o(x$fpl$scalbn)
    _scanf_real                              0x0801d6ff   Thumb Code     4  scanf1.o(x$fpl$scanf1)
    _scanf_hex_real                          0x0801d703   Thumb Code     4  scanf2.o(x$fpl$scanf2)
    _scanf_infnan                            0x0801d707   Thumb Code     4  scanf2.o(x$fpl$scanf2)
    __fpl_cmpreturn                          0x0801d70b   Thumb Code    48  trapv.o(x$fpl$trapveneer)
    __I$use$fp                               0x0801d73a   Number         0  usenofp.o(x$fpl$usenofp)
    _monlen                                  0x0801d88c   Data          12  _monlen.o(.constdata)
    Region$$Table$$Base                      0x0801d9b8   Number         0  anon$$obj.o(Region$$Table)
    Region$$Table$$Limit                     0x0801d9d8   Number         0  anon$$obj.o(Region$$Table)
    __aeabi_HUGE_VAL                         0x0801d9d8   Data           0  fpconst.o(c$$dinf)
    __aeabi_HUGE_VALL                        0x0801d9d8   Data           0  fpconst.o(c$$dinf)
    __aeabi_INFINITY                         0x0801d9d8   Data           0  fpconst.o(c$$dinf)
    __dInf                                   0x0801d9d8   Data           0  fpconst.o(c$$dinf)
    __huge_val                               0x0801d9d8   Data           0  fpconst.o(c$$dinf)
    __ctype                                  0x0801da09   Data           0  lc_ctype_c.o(locale$$data)
    Led                                      0x20000000   Data           7  led.o(.data)
    Buzz                                     0x20000007   Data           2  buzz.o(.data)
    tmpBuzz                                  0x20000009   Data           1  buzz.o(.data)
    tmpCount                                 0x2000000a   Data           2  interrupt.o(.data)
    NumberOfPulse                            0x20000010   Data           4  measurement.o(.data)
    VanTocCo                                 0x20000014   Data           4  measurement.o(.data)
    VanTocGPS                                0x20000018   Data           2  measurement.o(.data)
    PowerADCValue                            0x2000001a   Data           2  measurement.o(.data)
    MeasureTime                              0x2000001c   Data           2  measurement.o(.data)
    DangDiChuyenTheoCo                       0x2000001e   Data           1  measurement.o(.data)
    DangDiChuyenTheoGPS                      0x2000001f   Data           1  measurement.o(.data)
    SoBanTinDiChuyenLienTucGPS               0x20000020   Data           4  measurement.o(.data)
    SoBanTinDungLienTucGPS                   0x20000024   Data           4  measurement.o(.data)
    SoBanTinDiChuyenLienTucTheoCo            0x20000028   Data           4  measurement.o(.data)
    SoBanTinDungLienTucTheoCo                0x2000002c   Data           4  measurement.o(.data)
    u8_OldYear                               0x20000038   Data           1  olddataprocess.o(.data)
    u8_OldMonth                              0x20000039   Data           1  olddataprocess.o(.data)
    u8_OldDay                                0x2000003a   Data           1  olddataprocess.o(.data)
    u8_OldHour                               0x2000003b   Data           1  olddataprocess.o(.data)
    u8_OldMinute                             0x2000003c   Data           1  olddataprocess.o(.data)
    u8_OldSecond                             0x2000003d   Data           1  olddataprocess.o(.data)
    CalYear                                  0x2000003e   Data           1  olddataprocess.o(.data)
    CalMonth                                 0x2000003f   Data           1  olddataprocess.o(.data)
    CalDay                                   0x20000040   Data           1  olddataprocess.o(.data)
    CalHour                                  0x20000041   Data           1  olddataprocess.o(.data)
    CalMinute                                0x20000042   Data           1  olddataprocess.o(.data)
    CalSecond                                0x20000043   Data           1  olddataprocess.o(.data)
    CalYearDH                                0x20000044   Data           1  olddataprocess.o(.data)
    CalMonthDH                               0x20000045   Data           1  olddataprocess.o(.data)
    CalDayDH                                 0x20000046   Data           1  olddataprocess.o(.data)
    CalHourDH                                0x20000047   Data           1  olddataprocess.o(.data)
    CalMinuteDH                              0x20000048   Data           1  olddataprocess.o(.data)
    CalSecondDH                              0x20000049   Data           1  olddataprocess.o(.data)
    FLASHStatus                              0x2000004a   Data           1  updatefimware.o(.data)
    Alarm                                    0x20000051   Data           3  bgt_alarm.o(.data)
    LastGPSStatus                            0x2000005a   Data           1  gps_process.o(.data)
    GPSResetCount                            0x2000005c   Data           2  gps_process.o(.data)
    IsBaudrateValid                          0x2000005e   Data           1  gps_process.o(.data)
    BaudRateCount                            0x2000005f   Data           1  gps_process.o(.data)
    GPRS                                     0x20000062   Data           3  gsm_gprs.o(.data)
    SendDataTimeOut                          0x20000068   Data           2  gsm_gprs.o(.data)
    NewCommandToExec                         0x2000006a   Data           1  gsm_gprs.o(.data)
    ThoiGianNhacMay                          0x2000006c   Data           2  gsm_hardware.o(.data)
    RTC_TimeStruct                           0x20000070   Data           4  rtc.o(.data)
    RTC_DateStruct                           0x20000074   Data           4  rtc.o(.data)
    AsynchPrediv                             0x20000078   Data           4  rtc.o(.data)
    SynchPrediv                              0x2000007c   Data           4  rtc.o(.data)
    XuLyDuLieuNgayMoi                        0x20000080   Data           1  rtc.o(.data)
    OldMinute                                0x20000081   Data           1  rtc.o(.data)
    TimeFLashErase                           0x20000088   Data           4  dataflash.o(.data)
    AmThanh                                  0x20000974   Data           6  amthanh.o(.data)
    SystemCoreClock                          0x2000098c   Data           4  system_stm32f2xx.o(.data)
    AHBPrescTable                            0x20000990   Data          16  system_stm32f2xx.o(.data)
    xSystem                                  0x200009a4   Data        4784  main.o(.bss)
    SMSBuffer                                0x20001c54   Data        2048  main.o(.bss)
    xCauHinh                                 0x20002454   Data         206  cauhinh.o(.bss)
    GPSVersion                               0x20002522   Data          10  initsystem.o(.bss)
    KhoaXe                                   0x2000252c   Data         176  tatdongco.o(.bss)
    Measure                                  0x200025dc   Data          12  measurement.o(.bss)
    ADC_RegularConvertedValueTab             0x200025e8   Data          18  measurement.o(.bss)
    Config                                   0x200025fa   Data         516  configuration.o(.bss)
    OldData                                  0x20002800   Data          20  olddataprocess.o(.bss)
    OldDataBuffer                            0x20002814   Data         200  olddataprocess.o(.bss)
    OldDataDongHo                            0x200028dc   Data          50  olddataprocess.o(.bss)
    BGT                                      0x20002910   Data         272  bgt_data.o(.bss)
    DiChuyen                                 0x20002a20   Data          28  bgt_data.o(.bss)
    RFID                                     0x20002a3c   Data         526  bgt_rfid.o(.bss)
    xThongTinLaiXe                           0x20002c4c   Data         112  bgt_laixe.o(.bss)
    BufferSpeed                              0x20002cbc   Data         120  bgt_process.o(.bss)
    BGT_Command                              0x20002d34   Data          12  bgt_command.o(.bss)
    HP2010                                   0x20002e8c   Data        1038  hp2010.o(.bss)
    GPSConvert                               0x2000329c   Data          12  gps_process.o(.bss)
    GPSControl                               0x200032a8   Data          24  gps_process.o(.bss)
    GPSTemp                                  0x200032c0   Data          24  gps_process.o(.bss)
    GPS                                      0x200032d8   Data        1064  gps_hardware.o(.bss)
    SMSMemory                                0x20003700   Data        1365  gsm_sms.o(.bss)
    SoDienThoai                              0x20003c55   Data          20  gsm_sms.o(.bss)
    SendSMSBuffer                            0x20003c69   Data         120  gsm_sms.o(.bss)
    GPRSData                                 0x20003ce2   Data        8630  gsm_gprs.o(.bss)
    SendDataCMDBuf                           0x20005e98   Data          30  gsm_gprs.o(.bss)
    ATCOMMAND                                0x20005eb6   Data         100  gsm_gprs.o(.bss)
    Message                                  0x20005f1c   Data        1088  gsm_message.o(.bss)
    GSM                                      0x2000635c   Data        2072  gsm_hardware.o(.bss)
    xServer                                  0x20006b74   Data        4100  gsm_serverprocess.o(.bss)
    RTC_InitStructure                        0x20007b78   Data          12  rtc.o(.bss)
    tmpDateTime                              0x20007b84   Data          10  rtc.o(.bss)
    Base64                                   0x20007c10   Data        1026  base64.o(.bss)
    MaHoa                                    0x20008012   Data        1034  mahoa.o(.bss)
    NhienLieu                                0x2000841c   Data          24  nhienlieu.o(.bss)
    __libspace_start                         0x20008460   Data          96  libspace.o(.bss)
    __temporary_stack_top$libspace           0x200084c0   Data           0  libspace.o(.bss)



==============================================================================

Memory Map of the image

  Image Entry point : 0x08008185

  Load Region LR_IROM1 (Base: 0x08008000, Size: 0x000164b0, Max: 0x0007c000, ABSOLUTE, COMPRESSED[0x00015f04])

    Execution Region ER_IROM1 (Base: 0x08008000, Size: 0x00015b0c, Max: 0x0007c000, ABSOLUTE)

    Base Addr    Size         Type   Attr      Idx    E Section Name        Object

    0x08008000   0x00000184   Data   RO         1777    RESET               startup_stm32f2xx.o
    0x08008184   0x00000008   Code   RO         1879  * !!!main             c_w.l(__main.o)
    0x0800818c   0x00000034   Code   RO         2260    !!!scatter          c_w.l(__scatter.o)
    0x080081c0   0x0000005a   Code   RO         2258    !!dczerorl2         c_w.l(__dczerorl2.o)
    0x0800821a   0x00000002   PAD
    0x0800821c   0x0000001c   Code   RO         2262    !!handler_zi        c_w.l(__scatter_zi.o)
    0x08008238   0x00000000   Code   RO         1850    .ARM.Collect$$_printf_percent$$00000000  c_w.l(_printf_percent.o)
    0x08008238   0x00000006   Code   RO         1849    .ARM.Collect$$_printf_percent$$00000003  c_w.l(_printf_f.o)
    0x0800823e   0x00000006   Code   RO         1847    .ARM.Collect$$_printf_percent$$00000009  c_w.l(_printf_d.o)
    0x08008244   0x00000006   Code   RO         1848    .ARM.Collect$$_printf_percent$$0000000A  c_w.l(_printf_u.o)
    0x0800824a   0x00000006   Code   RO         1846    .ARM.Collect$$_printf_percent$$00000014  c_w.l(_printf_s.o)
    0x08008250   0x00000004   Code   RO         1943    .ARM.Collect$$_printf_percent$$00000017  c_w.l(_printf_percent_end.o)
    0x08008254   0x00000002   Code   RO         2053    .ARM.Collect$$libinit$$00000000  c_w.l(libinit.o)
    0x08008256   0x00000000   Code   RO         2055    .ARM.Collect$$libinit$$00000002  c_w.l(libinit2.o)
    0x08008256   0x00000000   Code   RO         2057    .ARM.Collect$$libinit$$00000004  c_w.l(libinit2.o)
    0x08008256   0x00000000   Code   RO         2060    .ARM.Collect$$libinit$$0000000A  c_w.l(libinit2.o)
    0x08008256   0x00000000   Code   RO         2062    .ARM.Collect$$libinit$$0000000C  c_w.l(libinit2.o)
    0x08008256   0x00000000   Code   RO         2064    .ARM.Collect$$libinit$$0000000E  c_w.l(libinit2.o)
    0x08008256   0x00000006   Code   RO         2065    .ARM.Collect$$libinit$$0000000F  c_w.l(libinit2.o)
    0x0800825c   0x00000000   Code   RO         2067    .ARM.Collect$$libinit$$00000011  c_w.l(libinit2.o)
    0x0800825c   0x0000000c   Code   RO         2068    .ARM.Collect$$libinit$$00000012  c_w.l(libinit2.o)
    0x08008268   0x00000000   Code   RO         2069    .ARM.Collect$$libinit$$00000013  c_w.l(libinit2.o)
    0x08008268   0x00000000   Code   RO         2071    .ARM.Collect$$libinit$$00000015  c_w.l(libinit2.o)
    0x08008268   0x0000000a   Code   RO         2072    .ARM.Collect$$libinit$$00000016  c_w.l(libinit2.o)
    0x08008272   0x00000000   Code   RO         2073    .ARM.Collect$$libinit$$00000017  c_w.l(libinit2.o)
    0x08008272   0x00000000   Code   RO         2075    .ARM.Collect$$libinit$$00000019  c_w.l(libinit2.o)
    0x08008272   0x00000000   Code   RO         2077    .ARM.Collect$$libinit$$0000001B  c_w.l(libinit2.o)
    0x08008272   0x00000000   Code   RO         2079    .ARM.Collect$$libinit$$0000001D  c_w.l(libinit2.o)
    0x08008272   0x00000000   Code   RO         2081    .ARM.Collect$$libinit$$0000001F  c_w.l(libinit2.o)
    0x08008272   0x00000000   Code   RO         2083    .ARM.Collect$$libinit$$00000021  c_w.l(libinit2.o)
    0x08008272   0x00000000   Code   RO         2085    .ARM.Collect$$libinit$$00000023  c_w.l(libinit2.o)
    0x08008272   0x00000000   Code   RO         2087    .ARM.Collect$$libinit$$00000025  c_w.l(libinit2.o)
    0x08008272   0x00000000   Code   RO         2091    .ARM.Collect$$libinit$$0000002C  c_w.l(libinit2.o)
    0x08008272   0x00000000   Code   RO         2093    .ARM.Collect$$libinit$$0000002E  c_w.l(libinit2.o)
    0x08008272   0x00000000   Code   RO         2095    .ARM.Collect$$libinit$$00000030  c_w.l(libinit2.o)
    0x08008272   0x00000000   Code   RO         2097    .ARM.Collect$$libinit$$00000032  c_w.l(libinit2.o)
    0x08008272   0x00000002   Code   RO         2098    .ARM.Collect$$libinit$$00000033  c_w.l(libinit2.o)
    0x08008274   0x00000002   Code   RO         2157    .ARM.Collect$$libshutdown$$00000000  c_w.l(libshutdown.o)
    0x08008276   0x00000000   Code   RO         2186    .ARM.Collect$$libshutdown$$00000002  c_w.l(libshutdown2.o)
    0x08008276   0x00000000   Code   RO         2188    .ARM.Collect$$libshutdown$$00000004  c_w.l(libshutdown2.o)
    0x08008276   0x00000000   Code   RO         2191    .ARM.Collect$$libshutdown$$00000007  c_w.l(libshutdown2.o)
    0x08008276   0x00000000   Code   RO         2194    .ARM.Collect$$libshutdown$$0000000A  c_w.l(libshutdown2.o)
    0x08008276   0x00000000   Code   RO         2196    .ARM.Collect$$libshutdown$$0000000C  c_w.l(libshutdown2.o)
    0x08008276   0x00000000   Code   RO         2199    .ARM.Collect$$libshutdown$$0000000F  c_w.l(libshutdown2.o)
    0x08008276   0x00000002   Code   RO         2200    .ARM.Collect$$libshutdown$$00000010  c_w.l(libshutdown2.o)
    0x08008278   0x00000000   Code   RO         1925    .ARM.Collect$$rtentry$$00000000  c_w.l(__rtentry.o)
    0x08008278   0x00000000   Code   RO         1966    .ARM.Collect$$rtentry$$00000002  c_w.l(__rtentry2.o)
    0x08008278   0x00000006   Code   RO         1978    .ARM.Collect$$rtentry$$00000004  c_w.l(__rtentry4.o)
    0x0800827e   0x00000000   Code   RO         1968    .ARM.Collect$$rtentry$$00000009  c_w.l(__rtentry2.o)
    0x0800827e   0x00000004   Code   RO         1969    .ARM.Collect$$rtentry$$0000000A  c_w.l(__rtentry2.o)
    0x08008282   0x00000000   Code   RO         1971    .ARM.Collect$$rtentry$$0000000C  c_w.l(__rtentry2.o)
    0x08008282   0x00000008   Code   RO         1972    .ARM.Collect$$rtentry$$0000000D  c_w.l(__rtentry2.o)
    0x0800828a   0x00000002   Code   RO         2099    .ARM.Collect$$rtexit$$00000000  c_w.l(rtexit.o)
    0x0800828c   0x00000000   Code   RO         2121    .ARM.Collect$$rtexit$$00000002  c_w.l(rtexit2.o)
    0x0800828c   0x00000004   Code   RO         2122    .ARM.Collect$$rtexit$$00000003  c_w.l(rtexit2.o)
    0x08008290   0x00000006   Code   RO         2123    .ARM.Collect$$rtexit$$00000004  c_w.l(rtexit2.o)
    0x08008296   0x00000002   PAD
    0x08008298   0x00000350   Code   RO            4    .text               led.o
    0x080085e8   0x00000138   Code   RO          148    .text               main.o
    0x08008720   0x000000d0   Code   RO          228    .text               buzz.o
    0x080087f0   0x000002f0   Code   RO          258    .text               debug.o
    0x08008ae0   0x000003b8   Code   RO          295    .text               utilities.o
    0x08008e98   0x00000324   Code   RO          326    .text               interrupt.o
    0x080091bc   0x00000e8c   Code   RO          372    .text               cauhinh.o
    0x0800a048   0x000003e8   Code   RO          406    .text               initsystem.o
    0x0800a430   0x00000078   Code   RO          459    .text               watchdog.o
    0x0800a4a8   0x000001c0   Code   RO          483    .text               tatdongco.o
    0x0800a668   0x000007c4   Code   RO          536    .text               measurement.o
    0x0800ae2c   0x000004b0   Code   RO          565    .text               configuration.o
    0x0800b2dc   0x0000076c   Code   RO          602    .text               olddataprocess.o
    0x0800ba48   0x00000374   Code   RO          635    .text               hardwaremanager.o
    0x0800bdbc   0x00000198   Code   RO          664    .text               flash_if.o
    0x0800bf54   0x00000310   Code   RO          688    .text               updatefimware.o
    0x0800c264   0x000008cc   Code   RO          715    .text               bgt_data.o
    0x0800cb30   0x0000075c   Code   RO          759    .text               bgt_rfid.o
    0x0800d28c   0x0000060c   Code   RO          787    .text               bgt_laixe.o
    0x0800d898   0x00000148   Code   RO          816    .text               bgt_alarm.o
    0x0800d9e0   0x00000178   Code   RO          844    .text               bgt_process.o
    0x0800db58   0x00000d94   Code   RO          873    .text               bgt_command.o
    0x0800e8ec   0x00000928   Code   RO          901    .text               hp2010.o
    0x0800f214   0x00000640   Code   RO          933    .text               gps_process.o
    0x0800f854   0x000003f4   Code   RO          962    .text               gps_hardware.o
    0x0800fc48   0x000003ac   Code   RO          990    .text               gsm_m95.o
    0x0800fff4   0x00000b54   Code   RO         1021    .text               gsm_sms.o
    0x08010b48   0x000009c0   Code   RO         1052    .text               gsm_gprs.o
    0x08011508   0x00000118   Code   RO         1081    .text               gsm_process.o
    0x08011620   0x0000254c   Code   RO         1106    .text               gsm_message.o
    0x08013b6c   0x00000740   Code   RO         1137    .text               gsm_hardware.o
    0x080142ac   0x00000fdc   Code   RO         1169    .text               gsm_serverprocess.o
    0x08015288   0x000005a4   Code   RO         1207    .text               rtc.o
    0x0801582c   0x000005a8   Code   RO         1236    .text               fram.o
    0x08015dd4   0x000004a8   Code   RO         1266    .text               dataflash.o
    0x0801627c   0x00000470   Code   RO         1295    .text               des.o
    0x080166ec   0x00000208   Code   RO         1322    .text               base64.o
    0x080168f4   0x00000100   Code   RO         1350    .text               mahoa.o
    0x080169f4   0x0000017c   Code   RO         1383    .text               amthanh.o
    0x08016b70   0x00000140   Code   RO         1411    .text               nhienlieu.o
    0x08016cb0   0x000000e0   Code   RO         1440    .text               misc.o
    0x08016d90   0x00000464   Code   RO         1464    .text               stm32f2xx_adc.o
    0x080171f4   0x000003a8   Code   RO         1488    .text               stm32f2xx_dma.o
    0x0801759c   0x0000011c   Code   RO         1512    .text               stm32f2xx_exti.o
    0x080176b8   0x000004bc   Code   RO         1536    .text               stm32f2xx_flash.o
    0x08017b74   0x0000025c   Code   RO         1560    .text               stm32f2xx_gpio.o
    0x08017dd0   0x00000040   Code   RO         1584    .text               stm32f2xx_iwdg.o
    0x08017e10   0x000000d8   Code   RO         1608    .text               stm32f2xx_pwr.o
    0x08017ee8   0x00000588   Code   RO         1632    .text               stm32f2xx_rcc.o
    0x08018470   0x00000b08   Code   RO         1658    .text               stm32f2xx_rtc.o
    0x08018f78   0x000003a8   Code   RO         1682    .text               stm32f2xx_spi.o
    0x08019320   0x0000008c   Code   RO         1706    .text               stm32f2xx_syscfg.o
    0x080193ac   0x00000ca2   Code   RO         1730    .text               stm32f2xx_tim.o
    0x0801a04e   0x00000002   PAD
    0x0801a050   0x0000041a   Code   RO         1754    .text               stm32f2xx_usart.o
    0x0801a46a   0x00000002   PAD
    0x0801a46c   0x00000040   Code   RO         1778    .text               startup_stm32f2xx.o
    0x0801a4ac   0x000001e0   Code   RO         1785    .text               system_stm32f2xx.o
    0x0801a68c   0x0000002c   Code   RO         1814    .text               c_w.l(__2sprintf.o)
    0x0801a6b8   0x0000004e   Code   RO         1820    .text               c_w.l(_printf_pad.o)
    0x0801a706   0x00000052   Code   RO         1822    .text               c_w.l(_printf_str.o)
    0x0801a758   0x00000078   Code   RO         1824    .text               c_w.l(_printf_dec.o)
    0x0801a7d0   0x00000138   Code   RO         1838    .text               c_w.l(__printf_flags_wp.o)
    0x0801a908   0x0000001a   Code   RO         1851    .text               c_w.l(atoi.o)
    0x0801a922   0x00000002   PAD
    0x0801a924   0x0000000c   Code   RO         1853    .text               c_w.l(strtok.o)
    0x0801a930   0x00000024   Code   RO         1856    .text               c_w.l(strstr.o)
    0x0801a954   0x00000048   Code   RO         1858    .text               c_w.l(strcpy.o)
    0x0801a99c   0x0000003e   Code   RO         1860    .text               c_w.l(strlen.o)
    0x0801a9da   0x00000018   Code   RO         1862    .text               c_w.l(strcat.o)
    0x0801a9f2   0x0000008a   Code   RO         1864    .text               c_w.l(rt_memcpy_v6.o)
    0x0801aa7c   0x00000064   Code   RO         1866    .text               c_w.l(rt_memcpy_w.o)
    0x0801aae0   0x0000004e   Code   RO         1868    .text               c_w.l(rt_memclr_w.o)
    0x0801ab2e   0x00000002   PAD
    0x0801ab30   0x00000080   Code   RO         1870    .text               c_w.l(strcmpv7m.o)
    0x0801abb0   0x0000000c   Code   RO         1872    .text               c_w.l(localtime.o)
    0x0801abbc   0x000001ac   Code   RO         1875    .text               c_w.l(mktime.o)
    0x0801ad68   0x00000006   Code   RO         1877    .text               c_w.l(heapauxi.o)
    0x0801ad6e   0x00000002   PAD
    0x0801ad70   0x00000008   Code   RO         1929    .text               c_w.l(rt_errno_addr_intlibspace.o)
    0x0801ad78   0x00000016   Code   RO         1931    .text               c_w.l(_rserrno.o)
    0x0801ad8e   0x000000b2   Code   RO         1933    .text               c_w.l(_printf_intcommon.o)
    0x0801ae40   0x0000041a   Code   RO         1935    .text               c_w.l(_printf_fp_dec.o)
    0x0801b25a   0x00000002   PAD
    0x0801b25c   0x00000030   Code   RO         1937    .text               c_w.l(_printf_char_common.o)
    0x0801b28c   0x0000000a   Code   RO         1939    .text               c_w.l(_sputc.o)
    0x0801b296   0x0000002c   Code   RO         1941    .text               c_w.l(_printf_char.o)
    0x0801b2c2   0x00000002   PAD
    0x0801b2c4   0x000000a4   Code   RO         1944    .text               c_w.l(strtod.o)
    0x0801b368   0x00000070   Code   RO         1946    .text               c_w.l(strtol.o)
    0x0801b3d8   0x00000044   Code   RO         1948    .text               c_w.l(strtok_int.o)
    0x0801b41c   0x000000b8   Code   RO         1951    .text               c_w.l(localtime_internal.o)
    0x0801b4d4   0x00000008   Code   RO         1962    .text               c_w.l(libspace.o)
    0x0801b4dc   0x00000010   Code   RO         1980    .text               c_w.l(rt_ctype_table.o)
    0x0801b4ec   0x00000008   Code   RO         1985    .text               c_w.l(rt_locale_intlibspace.o)
    0x0801b4f4   0x0000008a   Code   RO         1987    .text               c_w.l(lludiv10.o)
    0x0801b57e   0x00000012   Code   RO         1989    .text               c_w.l(isspace.o)
    0x0801b590   0x00000080   Code   RO         1991    .text               c_w.l(_printf_fp_infnan.o)
    0x0801b610   0x00000040   Code   RO         1995    .text               c_w.l(_sgetc.o)
    0x0801b650   0x0000009e   Code   RO         1997    .text               c_w.l(_strtoul.o)
    0x0801b6ee   0x00000002   PAD
    0x0801b6f0   0x000000dc   Code   RO         1999    .text               c_w.l(bigflt0.o)
    0x0801b7cc   0x00000020   Code   RO         2027    .text               c_w.l(strcspn.o)
    0x0801b7ec   0x0000001c   Code   RO         2029    .text               c_w.l(strspn.o)
    0x0801b808   0x0000004a   Code   RO         2037    .text               c_w.l(sys_stackheap_outer.o)
    0x0801b852   0x0000001c   Code   RO         2039    .text               c_w.l(_chval.o)
    0x0801b86e   0x00000002   PAD
    0x0801b870   0x000004a4   Code   RO         2041    .text               c_w.l(scanf_fp.o)
    0x0801bd14   0x00000012   Code   RO         2046    .text               c_w.l(exit.o)
    0x0801bd26   0x00000002   PAD
    0x0801bd28   0x00000320   Code   RO         2127    .text               c_w.l(scanf_hexfp.o)
    0x0801c048   0x00000134   Code   RO         2129    .text               c_w.l(scanf_infnan.o)
    0x0801c17c   0x0000000c   Code   RO         2145    .text               c_w.l(sys_exit.o)
    0x0801c188   0x00000026   Code   RO         2149    .text               c_w.l(llshl.o)
    0x0801c1ae   0x00000002   Code   RO         2176    .text               c_w.l(use_no_semi.o)
    0x0801c1b0   0x00000000   Code   RO         2178    .text               c_w.l(indicate_semi.o)
    0x0801c1b0   0x0000003e   Code   RO         2002    CL$$btod_d2e        c_w.l(btod.o)
    0x0801c1ee   0x00000046   Code   RO         2004    CL$$btod_d2e_denorm_low  c_w.l(btod.o)
    0x0801c234   0x00000060   Code   RO         2003    CL$$btod_d2e_norm_op1  c_w.l(btod.o)
    0x0801c294   0x00000338   Code   RO         2012    CL$$btod_div_common  c_w.l(btod.o)
    0x0801c5cc   0x00000054   Code   RO         2010    CL$$btod_e2d        c_w.l(btod.o)
    0x0801c620   0x000000c6   Code   RO         2009    CL$$btod_e2e        c_w.l(btod.o)
    0x0801c6e6   0x00000028   Code   RO         2006    CL$$btod_ediv       c_w.l(btod.o)
    0x0801c70e   0x00000028   Code   RO         2008    CL$$btod_edivd      c_w.l(btod.o)
    0x0801c736   0x00000028   Code   RO         2005    CL$$btod_emul       c_w.l(btod.o)
    0x0801c75e   0x00000028   Code   RO         2007    CL$$btod_emuld      c_w.l(btod.o)
    0x0801c786   0x00000244   Code   RO         2011    CL$$btod_mult_common  c_w.l(btod.o)
    0x0801c9ca   0x00000028   Code   RO         2035    i.__ARM_fpclassify  m_ws.l(fpclassify.o)
    0x0801c9f2   0x0000000e   Code   RO         2207    i.__mathlib_dbl_overflow  m_ws.l(dunder.o)
    0x0801ca00   0x00000010   Code   RO         2209    i.__mathlib_dbl_underflow  m_ws.l(dunder.o)
    0x0801ca10   0x00000010   Code   RO         2114    i.__mathlib_narrow  m_ws.l(narrow.o)
    0x0801ca20   0x00000088   Code   RO         2115    i.__mathlib_tofloat  m_ws.l(narrow.o)
    0x0801caa8   0x00000016   Code   RO         2165    i.__support_ldexp   m_ws.l(ldexp.o)
    0x0801cabe   0x0000000e   Code   RO         1836    i._is_digit         c_w.l(__printf_wp.o)
    0x0801cacc   0x0000002a   Code   RO         1922    i.atof              m_ws.l(atof.o)
    0x0801caf6   0x00000002   PAD
    0x0801caf8   0x00000058   Code   RO         2140    i.frexp             m_ws.l(frexp.o)
    0x0801cb50   0x00000074   Code   RO         2166    i.ldexp             m_ws.l(ldexp.o)
    0x0801cbc4   0x0000002c   Code   RO         2025    locale$$code        c_w.l(lc_numeric_c.o)
    0x0801cbf0   0x0000002c   Code   RO         2044    locale$$code        c_w.l(lc_ctype_c.o)
    0x0801cc1c   0x00000062   Code   RO         1881    x$fpl$d2f           fz_ws.l(d2f.o)
    0x0801cc7e   0x00000002   PAD
    0x0801cc80   0x00000010   Code   RO         2201    x$fpl$dcheck1       fz_ws.l(dcheck1.o)
    0x0801cc90   0x00000018   Code   RO         2158    x$fpl$dcmpinf       fz_ws.l(dcmpi.o)
    0x0801cca8   0x00000078   Code   RO         2135    x$fpl$deqf          fz_ws.l(deqf.o)
    0x0801cd20   0x0000005a   Code   RO         1883    x$fpl$dfixu         fz_ws.l(dfixu.o)
    0x0801cd7a   0x00000026   Code   RO         1887    x$fpl$dfltu         fz_ws.l(dflt_clz.o)
    0x0801cda0   0x00000078   Code   RO         2160    x$fpl$dleqf         fz_ws.l(dleqf.o)
    0x0801ce18   0x00000154   Code   RO         1893    x$fpl$dmul          fz_ws.l(dmul.o)
    0x0801cf6c   0x0000009c   Code   RO         1953    x$fpl$dnaninf       fz_ws.l(dnaninf.o)
    0x0801d008   0x0000000c   Code   RO         1955    x$fpl$dretinf       fz_ws.l(dretinf.o)
    0x0801d014   0x0000006c   Code   RO         2137    x$fpl$drleqf        fz_ws.l(drleqf.o)
    0x0801d080   0x00000056   Code   RO         1895    x$fpl$f2d           fz_ws.l(f2d.o)
    0x0801d0d6   0x00000002   PAD
    0x0801d0d8   0x000000c4   Code   RO         1897    x$fpl$fadd          fz_ws.l(faddsub_clz.o)
    0x0801d19c   0x00000184   Code   RO         1904    x$fpl$fdiv          fz_ws.l(fdiv.o)
    0x0801d320   0x0000003e   Code   RO         1907    x$fpl$ffixu         fz_ws.l(ffixu.o)
    0x0801d35e   0x00000002   PAD
    0x0801d360   0x00000030   Code   RO         1912    x$fpl$fflt          fz_ws.l(fflt_clz.o)
    0x0801d390   0x00000026   Code   RO         1911    x$fpl$ffltu         fz_ws.l(fflt_clz.o)
    0x0801d3b6   0x00000002   PAD
    0x0801d3b8   0x00000102   Code   RO         1917    x$fpl$fmul          fz_ws.l(fmul.o)
    0x0801d4ba   0x0000008c   Code   RO         1957    x$fpl$fnaninf       fz_ws.l(fnaninf.o)
    0x0801d546   0x0000000a   Code   RO         1959    x$fpl$fretinf       fz_ws.l(fretinf.o)
    0x0801d550   0x000000ea   Code   RO         1899    x$fpl$fsub          fz_ws.l(faddsub_clz.o)
    0x0801d63a   0x00000004   Code   RO         1919    x$fpl$printf1       fz_ws.l(printf1.o)
    0x0801d63e   0x00000064   Code   RO         2232    x$fpl$retnan        fz_ws.l(retnan.o)
    0x0801d6a2   0x0000005c   Code   RO         2162    x$fpl$scalbn        fz_ws.l(scalbn.o)
    0x0801d6fe   0x00000004   Code   RO         2033    x$fpl$scanf1        fz_ws.l(scanf1.o)
    0x0801d702   0x00000008   Code   RO         2108    x$fpl$scanf2        fz_ws.l(scanf2.o)
    0x0801d70a   0x00000030   Code   RO         2238    x$fpl$trapveneer    fz_ws.l(trapv.o)
    0x0801d73a   0x00000000   Code   RO         1961    x$fpl$usenofp       fz_ws.l(usenofp.o)
    0x0801d73a   0x00000141   Data   RO         1324    .constdata          base64.o
    0x0801d87b   0x00000011   Data   RO         1839    .constdata          c_w.l(__printf_flags_wp.o)
    0x0801d88c   0x0000000c   Data   RO         1950    .constdata          c_w.l(_monlen.o)
    0x0801d898   0x00000094   Data   RO         2000    .constdata          c_w.l(bigflt0.o)
    0x0801d92c   0x00000043   Data   RO         1171    .conststring        gsm_serverprocess.o
    0x0801d96f   0x00000001   PAD
    0x0801d970   0x00000046   Data   RO         1413    .conststring        nhienlieu.o
    0x0801d9b6   0x00000002   PAD
    0x0801d9b8   0x00000020   Data   RO         2256    Region$$Table       anon$$obj.o
    0x0801d9d8   0x00000008   Data   RO         2103    c$$dinf             fz_ws.l(fpconst.o)
    0x0801d9e0   0x0000001c   Data   RO         2024    locale$$data        c_w.l(lc_numeric_c.o)
    0x0801d9fc   0x00000110   Data   RO         2043    locale$$data        c_w.l(lc_ctype_c.o)


    Execution Region RW_IRAM1 (Base: 0x20000000, Size: 0x00008ac0, Max: 0x00020000, ABSOLUTE, COMPRESSED[0x000003f8])

    Base Addr    Size         Type   Attr      Idx    E Section Name        Object

    0x20000000   0x00000007   Data   RW            5    .data               led.o
    0x20000007   0x00000003   Data   RW          229    .data               buzz.o
    0x2000000a   0x00000004   Data   RW          327    .data               interrupt.o
    0x2000000e   0x00000002   PAD
    0x20000010   0x00000028   Data   RW          538    .data               measurement.o
    0x20000038   0x00000012   Data   RW          604    .data               olddataprocess.o
    0x2000004a   0x00000001   Data   RW          689    .data               updatefimware.o
    0x2000004b   0x00000001   PAD
    0x2000004c   0x00000003   Data   RW          717    .data               bgt_data.o
    0x2000004f   0x00000002   Data   RW          789    .data               bgt_laixe.o
    0x20000051   0x00000003   Data   RW          817    .data               bgt_alarm.o
    0x20000054   0x00000005   Data   RW          846    .data               bgt_process.o
    0x20000059   0x00000001   Data   RW          903    .data               hp2010.o
    0x2000005a   0x00000007   Data   RW          935    .data               gps_process.o
    0x20000061   0x00000001   PAD
    0x20000062   0x00000009   Data   RW         1054    .data               gsm_gprs.o
    0x2000006b   0x00000001   PAD
    0x2000006c   0x00000002   Data   RW         1139    .data               gsm_hardware.o
    0x2000006e   0x00000002   PAD
    0x20000070   0x00000012   Data   RW         1209    .data               rtc.o
    0x20000082   0x00000001   Data   RW         1237    .data               fram.o
    0x20000083   0x00000001   PAD
    0x20000084   0x00000008   Data   RW         1268    .data               dataflash.o
    0x2000008c   0x000008e8   Data   RW         1297    .data               des.o
    0x20000974   0x00000006   Data   RW         1384    .data               amthanh.o
    0x2000097a   0x00000010   Data   RW         1633    .data               stm32f2xx_rcc.o
    0x2000098a   0x00000002   PAD
    0x2000098c   0x00000014   Data   RW         1786    .data               system_stm32f2xx.o
    0x200009a0   0x00000004   Data   RW         1854    .data               c_w.l(strtok.o)
    0x200009a4   0x00001ab0   Zero   RW          149    .bss                main.o
    0x20002454   0x000000ce   Zero   RW          373    .bss                cauhinh.o
    0x20002522   0x0000000a   Zero   RW          407    .bss                initsystem.o
    0x2000252c   0x000000b0   Zero   RW          484    .bss                tatdongco.o
    0x200025dc   0x0000001e   Zero   RW          537    .bss                measurement.o
    0x200025fa   0x00000204   Zero   RW          566    .bss                configuration.o
    0x200027fe   0x00000002   PAD
    0x20002800   0x0000010e   Zero   RW          603    .bss                olddataprocess.o
    0x2000290e   0x00000002   PAD
    0x20002910   0x0000012c   Zero   RW          716    .bss                bgt_data.o
    0x20002a3c   0x0000020e   Zero   RW          760    .bss                bgt_rfid.o
    0x20002c4a   0x00000002   PAD
    0x20002c4c   0x00000070   Zero   RW          788    .bss                bgt_laixe.o
    0x20002cbc   0x00000078   Zero   RW          845    .bss                bgt_process.o
    0x20002d34   0x00000158   Zero   RW          874    .bss                bgt_command.o
    0x20002e8c   0x0000040e   Zero   RW          902    .bss                hp2010.o
    0x2000329a   0x00000002   PAD
    0x2000329c   0x0000003c   Zero   RW          934    .bss                gps_process.o
    0x200032d8   0x00000428   Zero   RW          963    .bss                gps_hardware.o
    0x20003700   0x000005e1   Zero   RW         1022    .bss                gsm_sms.o
    0x20003ce1   0x00000001   PAD
    0x20003ce2   0x00002238   Zero   RW         1053    .bss                gsm_gprs.o
    0x20005f1a   0x00000002   PAD
    0x20005f1c   0x00000440   Zero   RW         1107    .bss                gsm_message.o
    0x2000635c   0x00000818   Zero   RW         1138    .bss                gsm_hardware.o
    0x20006b74   0x00001004   Zero   RW         1170    .bss                gsm_serverprocess.o
    0x20007b78   0x00000016   Zero   RW         1208    .bss                rtc.o
    0x20007b8e   0x00000002   PAD
    0x20007b90   0x00000080   Zero   RW         1296    .bss                des.o
    0x20007c10   0x00000402   Zero   RW         1323    .bss                base64.o
    0x20008012   0x0000040a   Zero   RW         1351    .bss                mahoa.o
    0x2000841c   0x00000018   Zero   RW         1412    .bss                nhienlieu.o
    0x20008434   0x0000002c   Zero   RW         1873    .bss                c_w.l(localtime.o)
    0x20008460   0x00000060   Zero   RW         1963    .bss                c_w.l(libspace.o)
    0x200084c0   0x00000200   Zero   RW         1776    HEAP                startup_stm32f2xx.o
    0x200086c0   0x00000400   Zero   RW         1775    STACK               startup_stm32f2xx.o


==============================================================================

Image component sizes


      Code (inc. data)   RO Data    RW Data    ZI Data      Debug   Object Name

       380         38          0          6          0       1720   amthanh.o
       520         14        321          0       1026       2413   base64.o
       328         44          0          3          0       1138   bgt_alarm.o
      3476        542          0          0        344       4889   bgt_command.o
      2252         82          0          3        300       9478   bgt_data.o
      1548        184          0          2        112       5032   bgt_laixe.o
       376         28          0          5        120       2524   bgt_process.o
      1884        256          0          0        526       4823   bgt_rfid.o
       208         14          0          3          0       1798   buzz.o
      3724        756          0          0        206       6344   cauhinh.o
      1200        294          0          0        516       2645   configuration.o
      1192         80          0          8          0       4688   dataflash.o
       752         12          0          0          0       5071   debug.o
      1136         56          0       2280        128       2950   des.o
       408         34          0          0          0       2300   flash_if.o
      1448         54          0          1          0       6679   fram.o
      1012        142          0          0       1064       2549   gps_hardware.o
      1600         68          0          7         60       4832   gps_process.o
      2496        456          0          9       8760       4772   gsm_gprs.o
      1856        334          0          2       2072       5168   gsm_hardware.o
       940        168          0          0          0       2287   gsm_m95.o
      9548       1124          0          0       1088      14508   gsm_message.o
       280         52          0          0          0        924   gsm_process.o
      4060        968         67          0       4100       6778   gsm_serverprocess.o
      2900        604          0          0       1505       6073   gsm_sms.o
       884        202          0          0          0      25208   hardwaremanager.o
      2344        274          0          1       1038       5229   hp2010.o
      1000        142          0          0         10      29410   initsystem.o
       804         78          0          4          0       8932   interrupt.o
       848        158          0          7          0     338573   led.o
       256          4          0          0       1034       1902   mahoa.o
       312         14          0          0       6832       9107   main.o
      1988        310          0         40         30       6442   measurement.o
       224         20          0          0          0       1929   misc.o
       320         64         70          0         24       1479   nhienlieu.o
      1900        386          0         18        270       4578   olddataprocess.o
      1444        292          0         18         22       4714   rtc.o
        64         26        388          0       1536        808   startup_stm32f2xx.o
      1124         24          0          0          0      10602   stm32f2xx_adc.o
       936         32          0          0          0       6457   stm32f2xx_dma.o
       284         10          0          0          0       2383   stm32f2xx_exti.o
      1212         26          0          0          0       7049   stm32f2xx_flash.o
       604         36          0          0          0       4089   stm32f2xx_gpio.o
        64          6          0          0          0       1321   stm32f2xx_iwdg.o
       216         12          0          0          0       2300   stm32f2xx_pwr.o
      1416         48          0         16          0      11071   stm32f2xx_rcc.o
      2824         36          0          0          0      12177   stm32f2xx_rtc.o
       936         22          0          0          0       6488   stm32f2xx_spi.o
       140         12          0          0          0       1559   stm32f2xx_syscfg.o
      3234         60          0          0          0      22976   stm32f2xx_tim.o
      1050         26          0          0          0       7820   stm32f2xx_usart.o
       480         40          0         20          0       1779   system_stm32f2xx.o
       448        146          0          0        176       5943   tatdongco.o
       784        344          0          1          0       1793   updatefimware.o
       952         20          0          0          0       5618   utilities.o
       120          4          0          0          0       1025   watchdog.o

    ----------------------------------------------------------------------
     74740       9278        881       2464      32912     663144   Object Totals
         0          0         32          0          0          0   (incl. Generated)
         4          0          3         10         13          0   (incl. Padding)

    ----------------------------------------------------------------------

      Code (inc. data)   RO Data    RW Data    ZI Data      Debug   Library Member Name

        44          6          0          0          0         84   __2sprintf.o
        90          0          0          0          0          0   __dczerorl2.o
         8          0          0          0          0         68   __main.o
       312          4         17          0          0         92   __printf_flags_wp.o
        14          0          0          0          0         68   __printf_wp.o
         0          0          0          0          0          0   __rtentry.o
        12          0          0          0          0          0   __rtentry2.o
         6          0          0          0          0          0   __rtentry4.o
        52          8          0          0          0          0   __scatter.o
        28          0          0          0          0          0   __scatter_zi.o
        28          0          0          0          0         68   _chval.o
         0          0         12          0          0          0   _monlen.o
        44          0          0          0          0        108   _printf_char.o
        48          6          0          0          0         96   _printf_char_common.o
         6          0          0          0          0          0   _printf_d.o
       120         16          0          0          0         92   _printf_dec.o
         6          0          0          0          0          0   _printf_f.o
      1050          0          0          0          0        216   _printf_fp_dec.o
       128         16          0          0          0         84   _printf_fp_infnan.o
       178          0          0          0          0         88   _printf_intcommon.o
        78          0          0          0          0        108   _printf_pad.o
         0          0          0          0          0          0   _printf_percent.o
         4          0          0          0          0          0   _printf_percent_end.o
         6          0          0          0          0          0   _printf_s.o
        82          0          0          0          0         80   _printf_str.o
         6          0          0          0          0          0   _printf_u.o
        22          0          0          0          0        100   _rserrno.o
        64          0          0          0          0         84   _sgetc.o
        10          0          0          0          0         68   _sputc.o
       158          0          0          0          0         92   _strtoul.o
        26          0          0          0          0         80   atoi.o
       220          4        148          0          0         96   bigflt0.o
      2074        132          0          0          0        940   btod.o
        18          0          0          0          0         80   exit.o
         6          0          0          0          0        152   heapauxi.o
         0          0          0          0          0          0   indicate_semi.o
        18          0          0          0          0         76   isspace.o
        44         10        272          0          0         76   lc_ctype_c.o
        44         10         28          0          0         76   lc_numeric_c.o
         2          0          0          0          0          0   libinit.o
        30          0          0          0          0          0   libinit2.o
         2          0          0          0          0          0   libshutdown.o
         2          0          0          0          0          0   libshutdown2.o
         8          4          0          0         96         68   libspace.o
        38          0          0          0          0         68   llshl.o
       138          0          0          0          0         80   lludiv10.o
        12          6          0          0         44         68   localtime.o
       184          6          0          0          0         80   localtime_internal.o
       428         10          0          0          0        116   mktime.o
        16          4          0          0          0         76   rt_ctype_table.o
         8          4          0          0          0         68   rt_errno_addr_intlibspace.o
         8          4          0          0          0         68   rt_locale_intlibspace.o
        78          0          0          0          0         80   rt_memclr_w.o
       138          0          0          0          0         68   rt_memcpy_v6.o
       100          0          0          0          0         80   rt_memcpy_w.o
         2          0          0          0          0          0   rtexit.o
        10          0          0          0          0          0   rtexit2.o
      1188         12          0          0          0        148   scanf_fp.o
       800         14          0          0          0        100   scanf_hexfp.o
       308         16          0          0          0        100   scanf_infnan.o
        24          0          0          0          0         68   strcat.o
       128          0          0          0          0         68   strcmpv7m.o
        72          0          0          0          0         80   strcpy.o
        32          0          0          0          0         80   strcspn.o
        62          0          0          0          0         76   strlen.o
        28          0          0          0          0         80   strspn.o
        36          0          0          0          0         80   strstr.o
       164         14          0          0          0        120   strtod.o
        12          6          0          4          0         68   strtok.o
        68          4          0          0          0         84   strtok_int.o
       112          0          0          0          0         88   strtol.o
        12          4          0          0          0         68   sys_exit.o
        74          0          0          0          0         80   sys_stackheap_outer.o
         2          0          0          0          0         68   use_no_semi.o
        98          4          0          0          0         92   d2f.o
        16          4          0          0          0         68   dcheck1.o
        24          0          0          0          0         68   dcmpi.o
       120          4          0          0          0         92   deqf.o
        90          4          0          0          0         92   dfixu.o
        38          0          0          0          0         68   dflt_clz.o
       120          4          0          0          0         92   dleqf.o
       340         12          0          0          0        104   dmul.o
       156          4          0          0          0         92   dnaninf.o
        12          0          0          0          0         68   dretinf.o
       108          0          0          0          0         80   drleqf.o
        86          4          0          0          0         84   f2d.o
       430          8          0          0          0        168   faddsub_clz.o
       388         76          0          0          0         96   fdiv.o
        62          4          0          0          0         84   ffixu.o
        86          0          0          0          0        136   fflt_clz.o
       258          4          0          0          0         84   fmul.o
       140          4          0          0          0         84   fnaninf.o
         0          0          8          0          0          0   fpconst.o
        10          0          0          0          0         68   fretinf.o
         4          0          0          0          0         68   printf1.o
       100          0          0          0          0         68   retnan.o
        92          0          0          0          0         68   scalbn.o
         4          0          0          0          0         68   scanf1.o
         8          0          0          0          0         84   scanf2.o
        48          0          0          0          0         68   trapv.o
         0          0          0          0          0          0   usenofp.o
        42          0          0          0          0         84   atof.o
        30          6          0          0          0        136   dunder.o
        40          0          0          0          0         68   fpclassify.o
        88          8          0          0          0         76   frexp.o
       138          0          0          0          0        160   ldexp.o
       152          4          0          0          0        168   narrow.o

    ----------------------------------------------------------------------
     12738        474        485          4        140       8384   Library Totals
        30          0          0          0          0          0   (incl. Padding)

    ----------------------------------------------------------------------

      Code (inc. data)   RO Data    RW Data    ZI Data      Debug   Library Name

      9380        320        477          4        140       5548   c_w.l
      2838        136          8          0          0       2144   fz_ws.l
       490         18          0          0          0        692   m_ws.l

    ----------------------------------------------------------------------
     12738        474        485          4        140       8384   Library Totals

    ----------------------------------------------------------------------

==============================================================================


      Code (inc. data)   RO Data    RW Data    ZI Data      Debug   

     87478       9752       1366       2468      33052     661384   Grand Totals
     87478       9752       1366       1016      33052     661384   ELF Image Totals (compressed)
     87478       9752       1366       1016          0          0   ROM Totals

==============================================================================

    Total RO  Size (Code + RO Data)                88844 (  86.76kB)
    Total RW  Size (RW Data + ZI Data)             35520 (  34.69kB)
    Total ROM Size (Code + RO Data + RW Data)      89860 (  87.75kB)

==============================================================================

